(lp0
(lp1
V01
p2
aV00
p3
aI128458
aa(lp4
V01
p5
aV01
p6
aI120448
aa(lp7
V01
p8
aV02
p9
aI110084
aa(lp10
V01
p11
aV03
p12
aI105906
aa(lp13
V01
p14
aV04
p15
aI122789
aa(lp16
V01
p17
aV05
p18
aI176180
aa(lp19
V01
p20
aV06
p21
aI209425
aa(lp22
V01
p23
aV07
p24
aI204636
aa(lp25
V01
p26
aV08
p27
aI198249
aa(lp28
V01
p29
aV09
p30
aI192414
aa(lp31
V01
p32
aV10
p33
aI191349
aa(lp34
V01
p35
aV11
p36
aI199963
aa(lp37
V01
p38
aV12
p39
aI200098
aa(lp40
V01
p41
aV13
p42
aI202632
aa(lp43
V01
p44
aV14
p45
aI211193
aa(lp46
V01
p47
aV15
p48
aI228277
aa(lp49
V01
p50
aV16
p51
aI238865
aa(lp52
V01
p53
aV17
p54
aI237815
aa(lp55
V01
p56
aV18
p57
aI211491
aa(lp58
V01
p59
aV19
p60
aI189964
aa(lp61
V01
p62
aV20
p63
aI173254
aa(lp64
V01
p65
aV21
p66
aI162914
aa(lp67
V01
p68
aV22
p69
aI153247
aa(lp70
V01
p71
aV23
p72
aI140075
aa(lp73
V02
p74
aV00
p75
aI127157
aa(lp76
V02
p77
aV01
p78
aI118436
aa(lp79
V02
p80
aV02
p81
aI109988
aa(lp82
V02
p83
aV03
p84
aI107937
aa(lp85
V02
p86
aV04
p87
aI121587
aa(lp88
V02
p89
aV05
p90
aI173112
aa(lp91
V02
p92
aV06
p93
aI208290
aa(lp94
V02
p95
aV07
p96
aI211927
aa(lp97
V02
p98
aV08
p99
aI206723
aa(lp100
V02
p101
aV09
p102
aI200980
aa(lp103
V02
p104
aV10
p105
aI202485
aa(lp106
V02
p107
aV11
p108
aI208208
aa(lp109
V02
p110
aV12
p111
aI205944
aa(lp112
V02
p113
aV13
p114
aI207057
aa(lp115
V02
p116
aV14
p117
aI215612
aa(lp118
V02
p119
aV15
p120
aI232416
aa(lp121
V02
p122
aV16
p123
aI245117
aa(lp124
V02
p125
aV17
p126
aI242052
aa(lp127
V02
p128
aV18
p129
aI222084
aa(lp130
V02
p131
aV19
p132
aI193056
aa(lp133
V02
p134
aV20
p135
aI179074
aa(lp136
V02
p137
aV21
p138
aI168354
aa(lp139
V02
p140
aV22
p141
aI159122
aa(lp142
V02
p143
aV23
p144
aI146252
aa(lp145
V03
p146
aV00
p147
aI129954
aa(lp148
V03
p149
aV01
p150
aI119053
aa(lp151
V03
p152
aV02
p153
aI111428
aa(lp154
V03
p155
aV03
p156
aI105008
aa(lp157
V03
p158
aV04
p159
aI105716
aa(lp160
V03
p161
aV05
p162
aI115331
aa(lp163
V03
p164
aV06
p165
aI148723
aa(lp166
V03
p167
aV07
p168
aI204673
aa(lp169
V03
p170
aV08
p171
aI251225
aa(lp172
V03
p173
aV09
p174
aI245641
aa(lp175
V03
p176
aV10
p177
aI234392
aa(lp178
V03
p179
aV11
p180
aI228042
aa(lp181
V03
p182
aV12
p183
aI218500
aa(lp184
V03
p185
aV13
p186
aI213668
aa(lp187
V03
p188
aV14
p189
aI215644
aa(lp190
V03
p191
aV15
p192
aI226122
aa(lp193
V03
p194
aV16
p195
aI236299
aa(lp196
V03
p197
aV17
p198
aI231414
aa(lp199
V03
p200
aV18
p201
aI215164
aa(lp202
V03
p203
aV19
p204
aI192027
aa(lp205
V03
p206
aV20
p207
aI177847
aa(lp208
V03
p209
aV21
p210
aI172861
aa(lp211
V03
p212
aV22
p213
aI160976
aa(lp214
V03
p215
aV23
p216
aI146727
aa(lp217
V04
p218
aV00
p219
aI134420
aa(lp220
V04
p221
aV01
p222
aI122431
aa(lp223
V04
p224
aV02
p225
aI113301
aa(lp226
V04
p227
aV03
p228
aI106670
aa(lp229
V04
p230
aV04
p231
aI102785
aa(lp232
V04
p233
aV05
p234
aI107081
aa(lp235
V04
p236
aV06
p237
aI125769
aa(lp238
V04
p239
aV07
p240
aI176201
aa(lp241
V04
p242
aV08
p243
aI225137
aa(lp244
V04
p245
aV09
p246
aI241776
aa(lp247
V04
p248
aV10
p249
aI236283
aa(lp250
V04
p251
aV11
p252
aI223771
aa(lp253
V04
p254
aV12
p255
aI205893
aa(lp256
V04
p257
aV13
p258
aI194750
aa(lp259
V04
p260
aV14
p261
aI193367
aa(lp262
V04
p263
aV15
p264
aI202997
aa(lp265
V04
p266
aV16
p267
aI215614
aa(lp268
V04
p269
aV17
p270
aI216838
aa(lp271
V04
p272
aV18
p273
aI202187
aa(lp274
V04
p275
aV19
p276
aI173542
aa(lp277
V04
p278
aV20
p279
aI160862
aa(lp280
V04
p281
aV21
p282
aI152691
aa(lp283
V04
p284
aV22
p285
aI148029
aa(lp286
V04
p287
aV23
p288
aI135232
aa(lp289
V05
p290
aV00
p291
aI125091
aa(lp292
V05
p293
aV01
p294
aI115136
aa(lp295
V05
p296
aV02
p297
aI106959
aa(lp298
V05
p299
aV03
p300
aI102881
aa(lp301
V05
p302
aV04
p303
aI115887
aa(lp304
V05
p305
aV05
p306
aI169224
aa(lp307
V05
p308
aV06
p309
aI203045
aa(lp310
V05
p311
aV07
p312
aI199671
aa(lp313
V05
p314
aV08
p315
aI196534
aa(lp316
V05
p317
aV09
p318
aI194363
aa(lp319
V05
p320
aV10
p321
aI196743
aa(lp322
V05
p323
aV11
p324
aI202193
aa(lp325
V05
p326
aV12
p327
aI198355
aa(lp328
V05
p329
aV13
p330
aI199306
aa(lp331
V05
p332
aV14
p333
aI210989
aa(lp334
V05
p335
aV15
p336
aI229143
aa(lp337
V05
p338
aV16
p339
aI242888
aa(lp340
V05
p341
aV17
p342
aI240729
aa(lp343
V05
p344
aV18
p345
aI219901
aa(lp346
V05
p347
aV19
p348
aI195656
aa(lp349
V05
p350
aV20
p351
aI175776
aa(lp352
V05
p353
aV21
p354
aI164202
aa(lp355
V05
p356
aV22
p357
aI154124
aa(lp358
V05
p359
aV23
p360
aI140470
aa(lp361
V06
p362
aV00
p363
aI125359
aa(lp364
V06
p365
aV01
p366
aI116579
aa(lp367
V06
p368
aV02
p369
aI110516
aa(lp370
V06
p371
aV03
p372
aI108300
aa(lp373
V06
p374
aV04
p375
aI120093
aa(lp376
V06
p377
aV05
p378
aI172829
aa(lp379
V06
p380
aV06
p381
aI203845
aa(lp382
V06
p383
aV07
p384
aI202250
aa(lp385
V06
p386
aV08
p387
aI196509
aa(lp388
V06
p389
aV09
p390
aI188940
aa(lp391
V06
p392
aV10
p393
aI188305
aa(lp394
V06
p395
aV11
p396
aI193933
aa(lp397
V06
p398
aV12
p399
aI192595
aa(lp400
V06
p401
aV13
p402
aI194246
aa(lp403
V06
p404
aV14
p405
aI203921
aa(lp406
V06
p407
aV15
p408
aI219074
aa(lp409
V06
p410
aV16
p411
aI233603
aa(lp412
V06
p413
aV17
p414
aI234783
aa(lp415
V06
p416
aV18
p417
aI219108
aa(lp418
V06
p419
aV19
p420
aI194010
aa(lp421
V06
p422
aV20
p423
aI178127
aa(lp424
V06
p425
aV21
p426
aI171320
aa(lp427
V06
p428
aV22
p429
aI158259
aa(lp430
V06
p431
aV23
p432
aI141807
aa(lp433
V07
p434
aV00
p435
aI130037
aa(lp436
V07
p437
aV01
p438
aI119923
aa(lp439
V07
p440
aV02
p441
aI113506
aa(lp442
V07
p443
aV03
p444
aI109578
aa(lp445
V07
p446
aV04
p447
aI122903
aa(lp448
V07
p449
aV05
p450
aI185580
aa(lp451
V07
p452
aV06
p453
aI215484
aa(lp454
V07
p455
aV07
p456
aI203017
aa(lp457
V07
p458
aV08
p459
aI187992
aa(lp460
V07
p461
aV09
p462
aI182905
aa(lp463
V07
p464
aV10
p465
aI183801
aa(lp466
V07
p467
aV11
p468
aI189663
aa(lp469
V07
p470
aV12
p471
aI188523
aa(lp472
V07
p473
aV13
p474
aI192615
aa(lp475
V07
p476
aV14
p477
aI202860
aa(lp478
V07
p479
aV15
p480
aI221153
aa(lp481
V07
p482
aV16
p483
aI231554
aa(lp484
V07
p485
aV17
p486
aI230829
aa(lp487
V07
p488
aV18
p489
aI212644
aa(lp490
V07
p491
aV19
p492
aI184964
aa(lp493
V07
p494
aV20
p495
aI169228
aa(lp496
V07
p497
aV21
p498
aI162180
aa(lp499
V07
p500
aV22
p501
aI152898
aa(lp502
V07
p503
aV23
p504
aI139866
aa(lp505
V08
p506
aV00
p507
aI127193
aa(lp508
V08
p509
aV01
p510
aI116825
aa(lp511
V08
p512
aV02
p513
aI109846
aa(lp514
V08
p515
aV03
p516
aI105682
aa(lp517
V08
p518
aV04
p519
aI118444
aa(lp520
V08
p521
aV05
p522
aI169914
aa(lp523
V08
p524
aV06
p525
aI199652
aa(lp526
V08
p527
aV07
p528
aI197945
aa(lp529
V08
p530
aV08
p531
aI199144
aa(lp532
V08
p533
aV09
p534
aI194397
aa(lp535
V08
p536
aV10
p537
aI193760
aa(lp538
V08
p539
aV11
p540
aI200478
aa(lp541
V08
p542
aV12
p543
aI198661
aa(lp544
V08
p545
aV13
p546
aI198561
aa(lp547
V08
p548
aV14
p549
aI213179
aa(lp550
V08
p551
aV15
p552
aI227770
aa(lp553
V08
p554
aV16
p555
aI239743
aa(lp556
V08
p557
aV17
p558
aI241367
aa(lp559
V08
p560
aV18
p561
aI223433
aa(lp562
V08
p563
aV19
p564
aI198302
aa(lp565
V08
p566
aV20
p567
aI183700
aa(lp568
V08
p569
aV21
p570
aI169764
aa(lp571
V08
p572
aV22
p573
aI159545
aa(lp574
V08
p575
aV23
p576
aI147689
aa(lp577
V09
p578
aV00
p579
aI133751
aa(lp580
V09
p581
aV01
p582
aI119330
aa(lp583
V09
p584
aV02
p585
aI114246
aa(lp586
V09
p587
aV03
p588
aI107870
aa(lp589
V09
p590
aV04
p591
aI119265
aa(lp592
V09
p593
aV05
p594
aI168467
aa(lp595
V09
p596
aV06
p597
aI204338
aa(lp598
V09
p599
aV07
p600
aI207004
aa(lp601
V09
p602
aV08
p603
aI205068
aa(lp604
V09
p605
aV09
p606
aI199829
aa(lp607
V09
p608
aV10
p609
aI199957
aa(lp610
V09
p611
aV11
p612
aI204165
aa(lp613
V09
p614
aV12
p615
aI204556
aa(lp616
V09
p617
aV13
p618
aI203471
aa(lp619
V09
p620
aV14
p621
aI213613
aa(lp622
V09
p623
aV15
p624
aI231311
aa(lp625
V09
p626
aV16
p627
aI246665
aa(lp628
V09
p629
aV17
p630
aI244815
aa(lp631
V09
p632
aV18
p633
aI222793
aa(lp634
V09
p635
aV19
p636
aI194805
aa(lp637
V09
p638
aV20
p639
aI180602
aa(lp640
V09
p641
aV21
p642
aI175478
aa(lp643
V09
p644
aV22
p645
aI162557
aa(lp646
V09
p647
aV23
p648
aI148342
aa(lp649
V10
p650
aV00
p651
aI136527
aa(lp652
V10
p653
aV01
p654
aI126428
aa(lp655
V10
p656
aV02
p657
aI117893
aa(lp658
V10
p659
aV03
p660
aI110668
aa(lp661
V10
p662
aV04
p663
aI107834
aa(lp664
V10
p665
aV05
p666
aI115830
aa(lp667
V10
p668
aV06
p669
aI144557
aa(lp670
V10
p671
aV07
p672
aI197613
aa(lp673
V10
p674
aV08
p675
aI239105
aa(lp676
V10
p677
aV09
p678
aI238266
aa(lp679
V10
p680
aV10
p681
aI231377
aa(lp682
V10
p683
aV11
p684
aI223388
aa(lp685
V10
p686
aV12
p687
aI214089
aa(lp688
V10
p689
aV13
p690
aI209898
aa(lp691
V10
p692
aV14
p693
aI217413
aa(lp694
V10
p695
aV15
p696
aI227763
aa(lp697
V10
p698
aV16
p699
aI242503
aa(lp700
V10
p701
aV17
p702
aI243258
aa(lp703
V10
p704
aV18
p705
aI226294
aa(lp706
V10
p707
aV19
p708
aI200270
aa(lp709
V10
p710
aV20
p711
aI184026
aa(lp712
V10
p713
aV21
p714
aI177414
aa(lp715
V10
p716
aV22
p717
aI167808
aa(lp718
V10
p719
aV23
p720
aI154606
aa(lp721
V11
p722
aV00
p723
aI141453
aa(lp724
V11
p725
aV01
p726
aI128273
aa(lp727
V11
p728
aV02
p729
aI118415
aa(lp730
V11
p731
aV03
p732
aI109925
aa(lp733
V11
p734
aV04
p735
aI104917
aa(lp736
V11
p737
aV05
p738
aI109200
aa(lp739
V11
p740
aV06
p741
aI129146
aa(lp742
V11
p743
aV07
p744
aI176968
aa(lp745
V11
p746
aV08
p747
aI226842
aa(lp748
V11
p749
aV09
p750
aI245565
aa(lp751
V11
p752
aV10
p753
aI240694
aa(lp754
V11
p755
aV11
p756
aI226425
aa(lp757
V11
p758
aV12
p759
aI207921
aa(lp760
V11
p761
aV13
p762
aI200995
aa(lp763
V11
p764
aV14
p765
aI199835
aa(lp766
V11
p767
aV15
p768
aI208521
aa(lp769
V11
p770
aV16
p771
aI217509
aa(lp772
V11
p773
aV17
p774
aI221410
aa(lp775
V11
p776
aV18
p777
aI206907
aa(lp778
V11
p779
aV19
p780
aI175599
aa(lp781
V11
p782
aV20
p783
aI162138
aa(lp784
V11
p785
aV21
p786
aI151950
aa(lp787
V11
p788
aV22
p789
aI146630
aa(lp790
V11
p791
aV23
p792
aI132540
aa(lp793
V12
p794
aV00
p795
aI120899
aa(lp796
V12
p797
aV01
p798
aI112872
aa(lp799
V12
p800
aV02
p801
aI107754
aa(lp802
V12
p803
aV03
p804
aI105660
aa(lp805
V12
p806
aV04
p807
aI116332
aa(lp808
V12
p809
aV05
p810
aI166222
aa(lp811
V12
p812
aV06
p813
aI199619
aa(lp814
V12
p815
aV07
p816
aI196590
aa(lp817
V12
p818
aV08
p819
aI192350
aa(lp820
V12
p821
aV09
p822
aI189017
aa(lp823
V12
p824
aV10
p825
aI190080
aa(lp826
V12
p827
aV11
p828
aI195706
aa(lp829
V12
p830
aV12
p831
aI193141
aa(lp832
V12
p833
aV13
p834
aI196224
aa(lp835
V12
p836
aV14
p837
aI207612
aa(lp838
V12
p839
aV15
p840
aI223718
aa(lp841
V12
p842
aV16
p843
aI241413
aa(lp844
V12
p845
aV17
p846
aI237766
aa(lp847
V12
p848
aV18
p849
aI216032
aa(lp850
V12
p851
aV19
p852
aI190437
aa(lp853
V12
p854
aV20
p855
aI173220
aa(lp856
V12
p857
aV21
p858
aI162202
aa(lp859
V12
p860
aV22
p861
aI151784
aa(lp862
V12
p863
aV23
p864
aI142563
aa(lp865
V13
p866
aV00
p867
aI132651
aa(lp868
V13
p869
aV01
p870
aI120672
aa(lp871
V13
p872
aV02
p873
aI113265
aa(lp874
V13
p875
aV03
p876
aI112471
aa(lp877
V13
p878
aV04
p879
aI121342
aa(lp880
V13
p881
aV05
p882
aI179660
aa(lp883
V13
p884
aV06
p885
aI209113
aa(lp886
V13
p887
aV07
p888
aI203694
aa(lp889
V13
p890
aV08
p891
aI194501
aa(lp892
V13
p893
aV09
p894
aI188816
aa(lp895
V13
p896
aV10
p897
aI193949
aa(lp898
V13
p899
aV11
p900
aI201378
aa(lp901
V13
p902
aV12
p903
aI210984
aa(lp904
V13
p905
aV13
p906
aI202020
aa(lp907
V13
p908
aV14
p909
aI212053
aa(lp910
V13
p911
aV15
p912
aI226826
aa(lp913
V13
p914
aV16
p915
aI236131
aa(lp916
V13
p917
aV17
p918
aI232841
aa(lp919
V13
p920
aV18
p921
aI217125
aa(lp922
V13
p923
aV19
p924
aI189528
aa(lp925
V13
p926
aV20
p927
aI175284
aa(lp928
V13
p929
aV21
p930
aI163176
aa(lp931
V13
p932
aV22
p933
aI154200
aa(lp934
V13
p935
aV23
p936
aI140419
aa(lp937
V14
p938
aV00
p939
aI123791
aa(lp940
V14
p941
aV01
p942
aI116612
aa(lp943
V14
p944
aV02
p945
aI114844
aa(lp946
V14
p947
aV03
p948
aI107665
aa(lp949
V14
p950
aV04
p951
aI117944
aa(lp952
V14
p953
aV05
p954
aI167607
aa(lp955
V14
p956
aV06
p957
aI200629
aa(lp958
V14
p959
aV07
p960
aI198399
aa(lp961
V14
p962
aV08
p963
aI194248
aa(lp964
V14
p965
aV09
p966
aI188464
aa(lp967
V14
p968
aV10
p969
aI191099
aa(lp970
V14
p971
aV11
p972
aI200305
aa(lp973
V14
p974
aV12
p975
aI199206
aa(lp976
V14
p977
aV13
p978
aI200191
aa(lp979
V14
p980
aV14
p981
aI209217
aa(lp982
V14
p983
aV15
p984
aI222952
aa(lp985
V14
p986
aV16
p987
aI233180
aa(lp988
V14
p989
aV17
p990
aI231651
aa(lp991
V14
p992
aV18
p993
aI215774
aa(lp994
V14
p995
aV19
p996
aI195544
aa(lp997
V14
p998
aV20
p999
aI176774
aa(lp1000
V14
p1001
aV21
p1002
aI170259
aa(lp1003
V14
p1004
aV22
p1005
aI153788
aa(lp1006
V14
p1007
aV23
p1008
aI141484
aa(lp1009
V15
p1010
aV00
p1011
aI128465
aa(lp1012
V15
p1013
aV01
p1014
aI117311
aa(lp1015
V15
p1016
aV02
p1017
aI109871
aa(lp1018
V15
p1019
aV03
p1020
aI104221
aa(lp1021
V15
p1022
aV04
p1023
aI117066
aa(lp1024
V15
p1025
aV05
p1026
aI167758
aa(lp1027
V15
p1028
aV06
p1029
aI199873
aa(lp1030
V15
p1031
aV07
p1032
aI198084
aa(lp1033
V15
p1034
aV08
p1035
aI193416
aa(lp1036
V15
p1037
aV10
p1038
aI192009
aa(lp1039
V15
p1040
aV11
p1041
aI197824
aa(lp1042
V15
p1043
aV12
p1044
aI198155
aa(lp1045
V15
p1046
aV13
p1047
aI202715
aa(lp1048
V15
p1049
aV14
p1050
aI207127
aa(lp1051
V15
p1052
aV15
p1053
aI218627
aa(lp1054
V15
p1055
aV16
p1056
aI232636
aa(lp1057
V15
p1058
aV17
p1059
aI234031
aa(lp1060
V15
p1061
aV18
p1062
aI219218
aa(lp1063
V15
p1064
aV19
p1065
aI194450
aa(lp1066
V15
p1067
aV20
p1068
aI175729
aa(lp1069
V15
p1070
aV21
p1071
aI167858
aa(lp1072
V15
p1073
aV22
p1074
aI157182
aa(lp1075
V15
p1076
aV23
p1077
aI143694
aa(lp1078
V16
p1079
aV00
p1080
aI132385
aa(lp1081
V16
p1082
aV01
p1083
aI122274
aa(lp1084
V16
p1085
aV02
p1086
aI114481
aa(lp1087
V16
p1088
aV03
p1089
aI111347
aa(lp1090
V16
p1091
aV04
p1092
aI124377
aa(lp1093
V16
p1094
aV05
p1095
aI174476
aa(lp1096
V16
p1097
aV06
p1098
aI206991
aa(lp1099
V16
p1100
aV07
p1101
aI208933
aa(lp1102
V16
p1103
aV08
p1104
aI206618
aa(lp1105
V16
p1106
aV09
p1107
aI201795
aa(lp1108
V16
p1109
aV10
p1110
aI202882
aa(lp1111
V16
p1112
aV11
p1113
aI209325
aa(lp1114
V16
p1115
aV12
p1116
aI210850
aa(lp1117
V16
p1118
aV13
p1119
aI210421
aa(lp1120
V16
p1121
aV14
p1122
aI218972
aa(lp1123
V16
p1124
aV15
p1125
aI236430
aa(lp1126
V16
p1127
aV16
p1128
aI249509
aa(lp1129
V16
p1130
aV17
p1131
aI238619
aa(lp1132
V16
p1133
aV18
p1134
aI219006
aa(lp1135
V16
p1136
aV19
p1137
aI198482
aa(lp1138
V16
p1139
aV20
p1140
aI184152
aa(lp1141
V16
p1142
aV21
p1143
aI179262
aa(lp1144
V16
p1145
aV22
p1146
aI167084
aa(lp1147
V16
p1148
aV23
p1149
aI154618
aa(lp1150
V17
p1151
aV00
p1152
aI142157
aa(lp1153
V17
p1154
aV01
p1155
aI131101
aa(lp1156
V17
p1157
aV02
p1158
aI117486
aa(lp1159
V17
p1160
aV03
p1161
aI113412
aa(lp1162
V17
p1163
aV04
p1164
aI110944
aa(lp1165
V17
p1166
aV05
p1167
aI119837
aa(lp1168
V17
p1169
aV06
p1170
aI150579
aa(lp1171
V17
p1172
aV07
p1173
aI202103
aa(lp1174
V17
p1175
aV08
p1176
aI243866
aa(lp1177
V17
p1178
aV09
p1179
aI251012
aa(lp1180
V17
p1181
aV10
p1182
aI245054
aa(lp1183
V17
p1184
aV11
p1185
aI234425
aa(lp1186
V17
p1187
aV12
p1188
aI221681
aa(lp1189
V17
p1190
aV13
p1191
aI221692
aa(lp1192
V17
p1193
aV14
p1194
aI232538
aa(lp1195
V17
p1196
aV15
p1197
aI249175
aa(lp1198
V17
p1199
aV16
p1200
aI263296
aa(lp1201
V17
p1202
aV17
p1203
aI263520
aa(lp1204
V17
p1205
aV18
p1206
aI247380
aa(lp1207
V17
p1208
aV19
p1209
aI226378
aa(lp1210
V17
p1211
aV20
p1212
aI209212
aa(lp1213
V17
p1214
aV21
p1215
aI197353
aa(lp1216
V17
p1217
aV22
p1218
aI191489
aa(lp1219
V17
p1220
aV23
p1221
aI176293
aa(lp1222
V18
p1223
aV00
p1224
aI159541
aa(lp1225
V18
p1226
aV01
p1227
aI147866
aa(lp1228
V18
p1229
aV02
p1230
aI137464
aa(lp1231
V18
p1232
aV03
p1233
aI129886
aa(lp1234
V18
p1235
aV04
p1236
aI125767
aa(lp1237
V18
p1238
aV05
p1239
aI128283
aa(lp1240
V18
p1241
aV06
p1242
aI147336
aa(lp1243
V18
p1244
aV07
p1245
aI193680
aa(lp1246
V18
p1247
aV08
p1248
aI246719
aa(lp1249
V18
p1250
aV09
p1251
aI268375
aa(lp1252
V18
p1253
aV10
p1254
aI261625
aa(lp1255
V18
p1256
aV11
p1257
aI249999
aa(lp1258
V18
p1259
aV12
p1260
aI234198
aa(lp1261
V18
p1262
aV13
p1263
aI223553
aa(lp1264
V18
p1265
aV14
p1266
aI222587
aa(lp1267
V18
p1268
aV15
p1269
aI233404
aa(lp1270
V18
p1271
aV16
p1272
aI243965
aa(lp1273
V18
p1274
aV17
p1275
aI243434
aa(lp1276
V18
p1277
aV18
p1278
aI224294
aa(lp1279
V18
p1280
aV19
p1281
aI200645
aa(lp1282
V18
p1283
aV20
p1284
aI182617
aa(lp1285
V18
p1286
aV21
p1287
aI178334
aa(lp1288
V18
p1289
aV22
p1290
aI159791
aa(lp1291
V18
p1292
aV23
p1293
aI149600
aa(lp1294
V19
p1295
aV00
p1296
aI142108
aa(lp1297
V19
p1298
aV01
p1299
aI133385
aa(lp1300
V19
p1301
aV02
p1302
aI122871
aa(lp1303
V19
p1304
aV03
p1305
aI118941
aa(lp1306
V19
p1307
aV04
p1308
aI130238
aa(lp1309
V19
p1310
aV05
p1311
aI178986
aa(lp1312
V19
p1313
aV06
p1314
aI210142
aa(lp1315
V19
p1316
aV07
p1317
aI200305
aa(lp1318
V19
p1319
aV08
p1320
aI198590
aa(lp1321
V19
p1322
aV09
p1323
aI194995
aa(lp1324
V19
p1325
aV10
p1326
aI197187
aa(lp1327
V19
p1328
aV11
p1329
aI197918
aa(lp1330
V19
p1331
aV12
p1332
aI195457
aa(lp1333
V19
p1334
aV13
p1335
aI198056
aa(lp1336
V19
p1337
aV14
p1338
aI207635
aa(lp1339
V19
p1340
aV15
p1341
aI226357
aa(lp1342
V19
p1343
aV16
p1344
aI240911
aa(lp1345
V19
p1346
aV17
p1347
aI246358
aa(lp1348
V19
p1349
aV18
p1350
aI228399
aa(lp1351
V19
p1352
aV19
p1353
aI203909
aa(lp1354
V19
p1355
aV20
p1356
aI185637
aa(lp1357
V19
p1358
aV21
p1359
aI173743
aa(lp1360
V19
p1361
aV22
p1362
aI166372
aa(lp1363
V19
p1364
aV23
p1365
aI147625
aa(lp1366
V20
p1367
aV00
p1368
aI135267
aa(lp1369
V20
p1370
aV01
p1371
aI125052
aa(lp1372
V20
p1373
aV02
p1374
aI117437
aa(lp1375
V20
p1376
aV03
p1377
aI111599
aa(lp1378
V20
p1379
aV04
p1380
aI118996
aa(lp1381
V20
p1382
aV05
p1383
aI170356
aa(lp1384
V20
p1385
aV06
p1386
aI202619
aa(lp1387
V20
p1388
aV07
p1389
aI202074
aa(lp1390
V20
p1391
aV08
p1392
aI198725
aa(lp1393
V20
p1394
aV09
p1395
aI194605
aa(lp1396
V20
p1397
aV10
p1398
aI196050
aa(lp1399
V20
p1400
aV11
p1401
aI202268
aa(lp1402
V20
p1403
aV12
p1404
aI197510
aa(lp1405
V20
p1406
aV13
p1407
aI198910
aa(lp1408
V20
p1409
aV14
p1410
aI212921
aa(lp1411
V20
p1412
aV15
p1413
aI229134
aa(lp1414
V20
p1415
aV16
p1416
aI245231
aa(lp1417
V20
p1418
aV17
p1419
aI244281
aa(lp1420
V20
p1421
aV18
p1422
aI229320
aa(lp1423
V20
p1424
aV19
p1425
aI204056
aa(lp1426
V20
p1427
aV20
p1428
aI186183
aa(lp1429
V20
p1430
aV21
p1431
aI178068
aa(lp1432
V20
p1433
aV22
p1434
aI164953
aa(lp1435
V20
p1436
aV23
p1437
aI148715
aa(lp1438
V21
p1439
aV00
p1440
aI137616
aa(lp1441
V21
p1442
aV01
p1443
aI126932
aa(lp1444
V21
p1445
aV02
p1446
aI117452
aa(lp1447
V21
p1448
aV03
p1449
aI111260
aa(lp1450
V21
p1451
aV04
p1452
aI121378
aa(lp1453
V21
p1454
aV05
p1455
aI167590
aa(lp1456
V21
p1457
aV06
p1458
aI201358
aa(lp1459
V21
p1460
aV07
p1461
aI205405
aa(lp1462
V21
p1463
aV08
p1464
aI207094
aa(lp1465
V21
p1466
aV09
p1467
aI205531
aa(lp1468
V21
p1469
aV10
p1470
aI205407
aa(lp1471
V21
p1472
aV11
p1473
aI210237
aa(lp1474
V21
p1475
aV12
p1476
aI208306
aa(lp1477
V21
p1478
aV13
p1479
aI209839
aa(lp1480
V21
p1481
aV14
p1482
aI219996
aa(lp1483
V21
p1484
aV15
p1485
aI237443
aa(lp1486
V21
p1487
aV16
p1488
aI254069
aa(lp1489
V21
p1490
aV17
p1491
aI251844
aa(lp1492
V21
p1493
aV18
p1494
aI230807
aa(lp1495
V21
p1496
aV19
p1497
aI208414
aa(lp1498
V21
p1499
aV20
p1500
aI190182
aa(lp1501
V21
p1502
aV21
p1503
aI177784
aa(lp1504
V21
p1505
aV22
p1506
aI165110
aa(lp1507
V21
p1508
aV23
p1509
aI152380
aa(lp1510
V22
p1511
aV00
p1512
aI138565
aa(lp1513
V22
p1514
aV01
p1515
aI126232
aa(lp1516
V22
p1517
aV02
p1518
aI115885
aa(lp1519
V22
p1520
aV03
p1521
aI112367
aa(lp1522
V22
p1523
aV04
p1524
aI122278
aa(lp1525
V22
p1526
aV05
p1527
aI165402
aa(lp1528
V22
p1529
aV06
p1530
aI197340
aa(lp1531
V22
p1532
aV07
p1533
aI207294
aa(lp1534
V22
p1535
aV08
p1536
aI211887
aa(lp1537
V22
p1538
aV09
p1539
aI208380
aa(lp1540
V22
p1541
aV10
p1542
aI209122
aa(lp1543
V22
p1544
aV11
p1545
aI212575
aa(lp1546
V22
p1547
aV12
p1548
aI210891
aa(lp1549
V22
p1550
aV13
p1551
aI215824
aa(lp1552
V22
p1553
aV14
p1554
aI223961
aa(lp1555
V22
p1556
aV15
p1557
aI245137
aa(lp1558
V22
p1559
aV16
p1560
aI261371
aa(lp1561
V22
p1562
aV17
p1563
aI266958
aa(lp1564
V22
p1565
aV18
p1566
aI246613
aa(lp1567
V22
p1568
aV19
p1569
aI221769
aa(lp1570
V22
p1571
aV20
p1572
aI204393
aa(lp1573
V22
p1574
aV21
p1575
aI190079
aa(lp1576
V22
p1577
aV22
p1578
aI174082
aa(lp1579
V22
p1580
aV23
p1581
aI159546
aa(lp1582
V23
p1583
aV00
p1584
aI142059
aa(lp1585
V23
p1586
aV01
p1587
aI130427
aa(lp1588
V23
p1589
aV02
p1590
aI124235
aa(lp1591
V23
p1592
aV03
p1593
aI113864
aa(lp1594
V23
p1595
aV04
p1596
aI122508
aa(lp1597
V23
p1598
aV05
p1599
aI156492
aa(lp1600
V23
p1601
aV06
p1602
aI188643
aa(lp1603
V23
p1604
aV07
p1605
aI218051
aa(lp1606
V23
p1607
aV08
p1608
aI235002
aa(lp1609
V23
p1610
aV09
p1611
aI236016
aa(lp1612
V23
p1613
aV10
p1614
aI236982
aa(lp1615
V23
p1616
aV11
p1617
aI236236
aa(lp1618
V23
p1619
aV12
p1620
aI232627
aa(lp1621
V23
p1622
aV13
p1623
aI234406
aa(lp1624
V23
p1625
aV14
p1626
aI246195
aa(lp1627
V23
p1628
aV15
p1629
aI266009
aa(lp1630
V23
p1631
aV16
p1632
aI277416
aa(lp1633
V23
p1634
aV17
p1635
aI273617
aa(lp1636
V23
p1637
aV18
p1638
aI254019
aa(lp1639
V23
p1640
aV19
p1641
aI225997
aa(lp1642
V23
p1643
aV20
p1644
aI210238
aa(lp1645
V23
p1646
aV21
p1647
aI197738
aa(lp1648
V23
p1649
aV22
p1650
aI188766
aa(lp1651
V23
p1652
aV23
p1653
aI171060
aa(lp1654
V24
p1655
aV00
p1656
aI158396
aa(lp1657
V24
p1658
aV01
p1659
aI141166
aa(lp1660
V24
p1661
aV02
p1662
aI131061
aa(lp1663
V24
p1664
aV03
p1665
aI123481
aa(lp1666
V24
p1667
aV04
p1668
aI118833
aa(lp1669
V24
p1670
aV05
p1671
aI125177
aa(lp1672
V24
p1673
aV06
p1674
aI160540
aa(lp1675
V24
p1676
aV07
p1677
aI213958
aa(lp1678
V24
p1679
aV08
p1680
aI269184
aa(lp1681
V24
p1682
aV09
p1683
aI288796
aa(lp1684
V24
p1685
aV10
p1686
aI285961
aa(lp1687
V24
p1688
aV11
p1689
aI278452
aa(lp1690
V24
p1691
aV12
p1692
aI269550
aa(lp1693
V24
p1694
aV13
p1695
aI266133
aa(lp1696
V24
p1697
aV14
p1698
aI271052
aa(lp1699
V24
p1700
aV15
p1701
aI289606
aa(lp1702
V24
p1703
aV16
p1704
aI298440
aa(lp1705
V24
p1706
aV17
p1707
aI298561
aa(lp1708
V24
p1709
aV18
p1710
aI280780
aa(lp1711
V24
p1712
aV19
p1713
aI266739
aa(lp1714
V24
p1715
aV20
p1716
aI245339
aa(lp1717
V24
p1718
aV21
p1719
aI231014
aa(lp1720
V24
p1721
aV22
p1722
aI213407
aa(lp1723
V24
p1724
aV23
p1725
aI190189
aa(lp1726
V25
p1727
aV00
p1728
aI169419
aa(lp1729
V25
p1730
aV01
p1731
aI158757
aa(lp1732
V25
p1733
aV02
p1734
aI146557
aa(lp1735
V25
p1736
aV03
p1737
aI135313
aa(lp1738
V25
p1739
aV04
p1740
aI130940
aa(lp1741
V25
p1742
aV05
p1743
aI128311
aa(lp1744
V25
p1745
aV06
p1746
aI133862
aa(lp1747
V25
p1748
aV07
p1749
aI167604
aa(lp1750
V25
p1751
aV08
p1752
aI215266
aa(lp1753
V25
p1754
aV09
p1755
aI245935
aa(lp1756
V25
p1757
aV10
p1758
aI242912
aa(lp1759
V25
p1760
aV11
p1761
aI221277
aa(lp1762
V25
p1763
aV12
p1764
aI211904
aa(lp1765
V25
p1766
aV13
p1767
aI222552
aa(lp1768
V25
p1769
aV14
p1770
aI229846
aa(lp1771
V25
p1772
aV15
p1773
aI238637
aa(lp1774
V25
p1775
aV16
p1776
aI247112
aa(lp1777
V25
p1778
aV17
p1779
aI249969
aa(lp1780
V25
p1781
aV18
p1782
aI232598
aa(lp1783
V25
p1784
aV19
p1785
aI210373
aa(lp1786
V25
p1787
aV20
p1788
aI191713
aa(lp1789
V25
p1790
aV21
p1791
aI180690
aa(lp1792
V25
p1793
aV22
p1794
aI172362
aa(lp1795
V25
p1796
aV23
p1797
aI160092
aa(lp1798
V26
p1799
aV00
p1800
aI141331
aa(lp1801
V26
p1802
aV01
p1803
aI128999
aa(lp1804
V26
p1805
aV02
p1806
aI119642
aa(lp1807
V26
p1808
aV03
p1809
aI113118
aa(lp1810
V26
p1811
aV04
p1812
aI112291
aa(lp1813
V26
p1814
aV05
p1815
aI122091
aa(lp1816
V26
p1817
aV06
p1818
aI136058
aa(lp1819
V26
p1820
aV07
p1821
aI174607
aa(lp1822
V26
p1823
aV08
p1824
aI215021
aa(lp1825
V26
p1826
aV09
p1827
aI225636
aa(lp1828
V26
p1829
aV10
p1830
aI223868
aa(lp1831
V26
p1832
aV11
p1833
aI209142
aa(lp1834
V26
p1835
aV12
p1836
aI190527
aa(lp1837
V26
p1838
aV13
p1839
aI178703
aa(lp1840
V26
p1841
aV14
p1842
aI180094
aa(lp1843
V26
p1844
aV15
p1845
aI188177
aa(lp1846
V26
p1847
aV16
p1848
aI194991
aa(lp1849
V26
p1850
aV17
p1851
aI197103
aa(lp1852
V26
p1853
aV18
p1854
aI185566
aa(lp1855
V26
p1856
aV19
p1857
aI166894
aa(lp1858
V26
p1859
aV20
p1860
aI160577
aa(lp1861
V26
p1862
aV21
p1863
aI145963
aa(lp1864
V26
p1865
aV22
p1866
aI138925
aa(lp1867
V26
p1868
aV23
p1869
aI128265
aa(lp1870
V27
p1871
aV00
p1872
aI115411
aa(lp1873
V27
p1874
aV01
p1875
aI106648
aa(lp1876
V27
p1877
aV02
p1878
aI101085
aa(lp1879
V27
p1880
aV03
p1881
aI97340
aa(lp1882
V27
p1883
aV04
p1884
aI101763
aa(lp1885
V27
p1886
aV05
p1887
aI121187
aa(lp1888
V27
p1889
aV06
p1890
aI142900
aa(lp1891
V27
p1892
aV07
p1893
aI176605
aa(lp1894
V27
p1895
aV08
p1896
aI207922
aa(lp1897
V27
p1898
aV09
p1899
aI213996
aa(lp1900
V27
p1901
aV10
p1902
aI208221
aa(lp1903
V27
p1904
aV11
p1905
aI209718
aa(lp1906
V27
p1907
aV12
p1908
aI198295
aa(lp1909
V27
p1910
aV13
p1911
aI192668
aa(lp1912
V27
p1913
aV14
p1914
aI196733
aa(lp1915
V27
p1916
aV15
p1917
aI209706
aa(lp1918
V27
p1919
aV16
p1920
aI217897
aa(lp1921
V27
p1922
aV17
p1923
aI216439
aa(lp1924
V27
p1925
aV18
p1926
aI196285
aa(lp1927
V27
p1928
aV19
p1929
aI173439
aa(lp1930
V27
p1931
aV20
p1932
aI159597
aa(lp1933
V27
p1934
aV21
p1935
aI151487
aa(lp1936
V27
p1937
aV22
p1938
aI143311
aa(lp1939
V27
p1940
aV23
p1941
aI130492
aa(lp1942
V28
p1943
aV00
p1944
aI120152
aa(lp1945
V28
p1946
aV01
p1947
aI106861
aa(lp1948
V28
p1949
aV02
p1950
aI98621
aa(lp1951
V28
p1952
aV03
p1953
aI94710
aa(lp1954
V28
p1955
aV04
p1956
aI98707
aa(lp1957
V28
p1958
aV05
p1959
aI118494
aa(lp1960
V28
p1961
aV06
p1962
aI142391
aa(lp1963
V28
p1964
aV07
p1965
aI175084
aa(lp1966
V28
p1967
aV08
p1968
aI204525
aa(lp1969
V28
p1970
aV09
p1971
aI209442
aa(lp1972
V28
p1973
aV10
p1974
aI209014
aa(lp1975
V28
p1976
aV11
p1977
aI210226
aa(lp1978
V28
p1979
aV12
p1980
aI199428
aa(lp1981
V28
p1982
aV13
p1983
aI191830
aa(lp1984
V28
p1985
aV14
p1986
aI195499
aa(lp1987
V28
p1988
aV15
p1989
aI209112
aa(lp1990
V28
p1991
aV16
p1992
aI216903
aa(lp1993
V28
p1994
aV17
p1995
aI211855
aa(lp1996
V28
p1997
aV18
p1998
aI198380
aa(lp1999
V28
p2000
aV19
p2001
aI173312
aa(lp2002
V28
p2003
aV20
p2004
aI155704
aa(lp2005
V28
p2006
aV21
p2007
aI149317
aa(lp2008
V28
p2009
aV22
p2010
aI139324
aa(lp2011
V28
p2012
aV23
p2013
aI126222
aa(lp2014
V29
p2015
aV00
p2016
aI113895
aa(lp2017
V29
p2018
aV01
p2019
aI104904
aa(lp2020
V29
p2021
aV02
p2022
aI98804
aa(lp2023
V29
p2024
aV03
p2025
aI95655
aa(lp2026
V29
p2027
aV04
p2028
aI98028
aa(lp2029
V29
p2030
aV05
p2031
aI117069
aa(lp2032
V29
p2033
aV06
p2034
aI142882
aa(lp2035
V29
p2036
aV07
p2037
aI176384
aa(lp2038
V29
p2039
aV08
p2040
aI205072
aa(lp2041
V29
p2042
aV09
p2043
aI208685
aa(lp2044
V29
p2045
aV10
p2046
aI208140
aa(lp2047
V29
p2048
aV11
p2049
aI207113
aa(lp2050
V29
p2051
aV12
p2052
aI195165
aa(lp2053
V29
p2054
aV13
p2055
aI189774
aa(lp2056
V29
p2057
aV14
p2058
aI194152
aa(lp2059
V29
p2060
aV15
p2061
aI204906
aa(lp2062
V29
p2063
aV16
p2064
aI218172
aa(lp2065
V29
p2066
aV17
p2067
aI215585
aa(lp2068
V29
p2069
aV18
p2070
aI199465
aa(lp2071
V29
p2072
aV19
p2073
aI176768
aa(lp2074
V29
p2075
aV20
p2076
aI164245
aa(lp2077
V29
p2078
aV21
p2079
aI155817
aa(lp2080
V29
p2081
aV22
p2082
aI148287
aa(lp2083
V29
p2084
aV23
p2085
aI132859
aa(lp2086
V30
p2087
aV00
p2088
aI119345
aa(lp2089
V30
p2090
aV01
p2091
aI106312
aa(lp2092
V30
p2093
aV02
p2094
aI101191
aa(lp2095
V30
p2096
aV03
p2097
aI96704
aa(lp2098
V30
p2099
aV04
p2100
aI98713
aa(lp2101
V30
p2102
aV05
p2103
aI115778
aa(lp2104
V30
p2105
aV06
p2106
aI143995
aa(lp2107
V30
p2108
aV07
p2109
aI180816
aa(lp2110
V30
p2111
aV08
p2112
aI212952
aa(lp2113
V30
p2114
aV09
p2115
aI220091
aa(lp2116
V30
p2117
aV10
p2118
aI215673
aa(lp2119
V30
p2120
aV11
p2121
aI211433
aa(lp2122
V30
p2123
aV12
p2124
aI198672
aa(lp2125
V30
p2126
aV13
p2127
aI193155
aa(lp2128
V30
p2129
aV14
p2130
aI197044
aa(lp2131
V30
p2132
aV15
p2133
aI206746
aa(lp2134
V30
p2135
aV16
p2136
aI216765
aa(lp2137
V30
p2138
aV17
p2139
aI217956
aa(lp2140
V30
p2141
aV18
p2142
aI206069
aa(lp2143
V30
p2144
aV19
p2145
aI179145
aa(lp2146
V30
p2147
aV20
p2148
aI166044
aa(lp2149
V30
p2150
aV21
p2151
aI158741
aa(lp2152
V30
p2153
aV22
p2154
aI147657
aa(lp2155
V30
p2156
aV23
p2157
aI132200
aa(lp2158
V31
p2159
aV00
p2160
aI120022
aa(lp2161
V31
p2162
aV01
p2163
aI109600
aa(lp2164
V31
p2165
aV02
p2166
aI105486
aa(lp2167
V31
p2168
aV03
p2169
aI100816
aa(lp2170
V31
p2171
aV04
p2172
aI99751
aa(lp2173
V31
p2174
aV05
p2175
aI106609
aa(lp2176
V31
p2177
aV06
p2178
aI125345
aa(lp2179
V31
p2180
aV07
p2181
aI168465
aa(lp2182
V31
p2183
aV08
p2184
aI216892
aa(lp2185
V31
p2186
aV09
p2187
aI235913
aa(lp2188
V31
p2189
aV10
p2190
aI238491
aa(lp2191
V31
p2192
aV11
p2193
aI236659
aa(lp2194
V31
p2195
aV12
p2196
aI225106
aa(lp2197
V31
p2198
aV13
p2199
aI218478
aa(lp2200
V31
p2201
aV14
p2202
aI220761
aa(lp2203
V31
p2204
aV15
p2205
aI233243
aa(lp2206
V31
p2207
aV16
p2208
aI249845
aa(lp2209
V31
p2210
aV17
p2211
aI247212
aa(lp2212
V31
p2213
aV18
p2214
aI235713
aa(lp2215
V31
p2216
aV19
p2217
aI218027
aa(lp2218
V31
p2219
aV20
p2220
aI205745
aa(lp2221
V31
p2222
aV21
p2223
aI196644
aa(lp2224
V31
p2225
aV22
p2226
aI191129
aa(lp2227
V31
p2228
aV23
p2229
aI182320
aa.