(lp0
(lp1
V01
p2
aV00
p3
aI61385
aa(lp4
V01
p5
aV01
p6
aI61688
aa(lp7
V01
p8
aV02
p9
aI63493
aa(lp10
V01
p11
aV03
p12
aI76134
aa(lp13
V01
p14
aV04
p15
aI107163
aa(lp16
V01
p17
aV05
p18
aI137800
aa(lp19
V01
p20
aV06
p21
aI153831
aa(lp22
V01
p23
aV07
p24
aI155254
aa(lp25
V01
p26
aV08
p27
aI154723
aa(lp28
V01
p29
aV09
p30
aI153667
aa(lp31
V01
p32
aV10
p33
aI155179
aa(lp34
V01
p35
aV11
p36
aI150775
aa(lp37
V01
p38
aV12
p39
aI143605
aa(lp40
V01
p41
aV13
p42
aI142133
aa(lp43
V01
p44
aV14
p45
aI145358
aa(lp46
V01
p47
aV15
p48
aI146083
aa(lp49
V01
p50
aV16
p51
aI145490
aa(lp52
V01
p53
aV17
p54
aI136508
aa(lp55
V01
p56
aV18
p57
aI120148
aa(lp58
V01
p59
aV19
p60
aI107472
aa(lp61
V01
p62
aV20
p63
aI95283
aa(lp64
V01
p65
aV21
p66
aI86502
aa(lp67
V01
p68
aV22
p69
aI78462
aa(lp70
V01
p71
aV23
p72
aI71538
aa(lp73
V02
p74
aV00
p75
aI66431
aa(lp76
V02
p77
aV01
p78
aI65942
aa(lp79
V02
p80
aV02
p81
aI66580
aa(lp82
V02
p83
aV03
p84
aI79923
aa(lp85
V02
p86
aV04
p87
aI113126
aa(lp88
V02
p89
aV05
p90
aI143830
aa(lp91
V02
p92
aV06
p93
aI158362
aa(lp94
V02
p95
aV07
p96
aI161315
aa(lp97
V02
p98
aV08
p99
aI162182
aa(lp100
V02
p101
aV09
p102
aI161304
aa(lp103
V02
p104
aV10
p105
aI164962
aa(lp106
V02
p107
aV11
p108
aI158986
aa(lp109
V02
p110
aV12
p111
aI148949
aa(lp112
V02
p113
aV13
p114
aI147634
aa(lp115
V02
p116
aV14
p117
aI150362
aa(lp118
V02
p119
aV15
p120
aI150761
aa(lp121
V02
p122
aV16
p123
aI150514
aa(lp124
V02
p125
aV17
p126
aI138448
aa(lp127
V02
p128
aV18
p129
aI117478
aa(lp130
V02
p131
aV19
p132
aI104400
aa(lp133
V02
p134
aV20
p135
aI96379
aa(lp136
V02
p137
aV21
p138
aI87385
aa(lp139
V02
p140
aV22
p141
aI79112
aa(lp142
V02
p143
aV23
p144
aI71739
aa(lp145
V03
p146
aV00
p147
aI67602
aa(lp148
V03
p149
aV01
p150
aI66292
aa(lp151
V03
p152
aV02
p153
aI68407
aa(lp154
V03
p155
aV03
p156
aI80909
aa(lp157
V03
p158
aV04
p159
aI115112
aa(lp160
V03
p161
aV05
p162
aI144685
aa(lp163
V03
p164
aV06
p165
aI159040
aa(lp166
V03
p167
aV07
p168
aI163616
aa(lp169
V03
p170
aV08
p171
aI159874
aa(lp172
V03
p173
aV09
p174
aI159036
aa(lp175
V03
p176
aV10
p177
aI159969
aa(lp178
V03
p179
aV11
p180
aI152211
aa(lp181
V03
p182
aV12
p183
aI145941
aa(lp184
V03
p185
aV13
p186
aI143789
aa(lp187
V03
p188
aV14
p189
aI147206
aa(lp190
V03
p191
aV15
p192
aI147639
aa(lp193
V03
p194
aV16
p195
aI145869
aa(lp196
V03
p197
aV17
p198
aI133786
aa(lp199
V03
p200
aV18
p201
aI117427
aa(lp202
V03
p203
aV19
p204
aI103545
aa(lp205
V03
p206
aV20
p207
aI93211
aa(lp208
V03
p209
aV21
p210
aI85704
aa(lp211
V03
p212
aV22
p213
aI77929
aa(lp214
V03
p215
aV23
p216
aI69553
aa(lp217
V04
p218
aV00
p219
aI64693
aa(lp220
V04
p221
aV01
p222
aI63493
aa(lp223
V04
p224
aV02
p225
aI64405
aa(lp226
V04
p227
aV03
p228
aI79682
aa(lp229
V04
p230
aV04
p231
aI115338
aa(lp232
V04
p233
aV05
p234
aI142415
aa(lp235
V04
p236
aV06
p237
aI153959
aa(lp238
V04
p239
aV07
p240
aI157133
aa(lp241
V04
p242
aV08
p243
aI154393
aa(lp244
V04
p245
aV09
p246
aI154697
aa(lp247
V04
p248
aV10
p249
aI155172
aa(lp250
V04
p251
aV11
p252
aI150480
aa(lp253
V04
p254
aV12
p255
aI146059
aa(lp256
V04
p257
aV13
p258
aI143951
aa(lp259
V04
p260
aV14
p261
aI146170
aa(lp262
V04
p263
aV15
p264
aI149160
aa(lp265
V04
p266
aV16
p267
aI147506
aa(lp268
V04
p269
aV17
p270
aI134896
aa(lp271
V04
p272
aV18
p273
aI115472
aa(lp274
V04
p275
aV19
p276
aI104148
aa(lp277
V04
p278
aV20
p279
aI96119
aa(lp280
V04
p281
aV21
p282
aI91400
aa(lp283
V04
p284
aV22
p285
aI81867
aa(lp286
V04
p287
aV23
p288
aI74375
aa(lp289
V05
p290
aV00
p291
aI70575
aa(lp292
V05
p293
aV01
p294
aI70322
aa(lp295
V05
p296
aV02
p297
aI73943
aa(lp298
V05
p299
aV03
p300
aI86243
aa(lp301
V05
p302
aV04
p303
aI120581
aa(lp304
V05
p305
aV05
p306
aI151528
aa(lp307
V05
p308
aV06
p309
aI165749
aa(lp310
V05
p311
aV07
p312
aI173990
aa(lp313
V05
p314
aV08
p315
aI173676
aa(lp316
V05
p317
aV09
p318
aI173075
aa(lp319
V05
p320
aV10
p321
aI165414
aa(lp322
V05
p323
aV11
p324
aI153673
aa(lp325
V05
p326
aV12
p327
aI140647
aa(lp328
V05
p329
aV13
p330
aI135390
aa(lp331
V05
p332
aV14
p333
aI136745
aa(lp334
V05
p335
aV15
p336
aI138238
aa(lp337
V05
p338
aV16
p339
aI137284
aa(lp340
V05
p341
aV17
p342
aI130913
aa(lp343
V05
p344
aV18
p345
aI114226
aa(lp346
V05
p347
aV19
p348
aI95354
aa(lp349
V05
p350
aV20
p351
aI84193
aa(lp352
V05
p353
aV21
p354
aI79918
aa(lp355
V05
p356
aV22
p357
aI72999
aa(lp358
V05
p359
aV23
p360
aI66729
aa(lp361
V06
p362
aV00
p363
aI61787
aa(lp364
V06
p365
aV01
p366
aI60035
aa(lp367
V06
p368
aV02
p369
aI56176
aa(lp370
V06
p371
aV03
p372
aI59593
aa(lp373
V06
p374
aV04
p375
aI72154
aa(lp376
V06
p377
aV05
p378
aI104083
aa(lp379
V06
p380
aV06
p381
aI147426
aa(lp382
V06
p383
aV07
p384
aI170896
aa(lp385
V06
p386
aV08
p387
aI172635
aa(lp388
V06
p389
aV09
p390
aI169797
aa(lp391
V06
p392
aV10
p393
aI166477
aa(lp394
V06
p395
aV11
p396
aI155309
aa(lp397
V06
p398
aV12
p399
aI145778
aa(lp400
V06
p401
aV13
p402
aI142668
aa(lp403
V06
p404
aV14
p405
aI149815
aa(lp406
V06
p407
aV15
p408
aI146079
aa(lp409
V06
p410
aV16
p411
aI141082
aa(lp412
V06
p413
aV17
p414
aI129818
aa(lp415
V06
p416
aV18
p417
aI116367
aa(lp418
V06
p419
aV19
p420
aI105499
aa(lp421
V06
p422
aV20
p423
aI114804
aa(lp424
V06
p425
aV21
p426
aI113575
aa(lp427
V06
p428
aV22
p429
aI76943
aa(lp430
V06
p431
aV23
p432
aI71768
aa(lp433
V07
p434
aV00
p435
aI67148
aa(lp436
V07
p437
aV01
p438
aI64053
aa(lp439
V07
p440
aV02
p441
aI63478
aa(lp442
V07
p443
aV03
p444
aI64924
aa(lp445
V07
p446
aV04
p447
aI71125
aa(lp448
V07
p449
aV05
p450
aI95096
aa(lp451
V07
p452
aV06
p453
aI132178
aa(lp454
V07
p455
aV07
p456
aI160288
aa(lp457
V07
p458
aV08
p459
aI168446
aa(lp460
V07
p461
aV09
p462
aI162398
aa(lp463
V07
p464
aV10
p465
aI154325
aa(lp466
V07
p467
aV11
p468
aI143875
aa(lp469
V07
p470
aV12
p471
aI131829
aa(lp472
V07
p473
aV13
p474
aI124394
aa(lp475
V07
p476
aV14
p477
aI123412
aa(lp478
V07
p479
aV15
p480
aI127021
aa(lp481
V07
p482
aV16
p483
aI126868
aa(lp484
V07
p485
aV17
p486
aI117475
aa(lp487
V07
p488
aV18
p489
aI105261
aa(lp490
V07
p491
aV19
p492
aI93059
aa(lp493
V07
p494
aV20
p495
aI85355
aa(lp496
V07
p497
aV21
p498
aI78972
aa(lp499
V07
p500
aV22
p501
aI72251
aa(lp502
V07
p503
aV23
p504
aI63926
aa(lp505
V08
p506
aV00
p507
aI58152
aa(lp508
V08
p509
aV01
p510
aI57725
aa(lp511
V08
p512
aV02
p513
aI60353
aa(lp514
V08
p515
aV03
p516
aI75355
aa(lp517
V08
p518
aV04
p519
aI112081
aa(lp520
V08
p521
aV05
p522
aI140256
aa(lp523
V08
p524
aV06
p525
aI154225
aa(lp526
V08
p527
aV07
p528
aI157073
aa(lp529
V08
p530
aV08
p531
aI157328
aa(lp532
V08
p533
aV09
p534
aI164305
aa(lp535
V08
p536
aV10
p537
aI164278
aa(lp538
V08
p539
aV11
p540
aI156470
aa(lp541
V08
p542
aV12
p543
aI150326
aa(lp544
V08
p545
aV13
p546
aI149077
aa(lp547
V08
p548
aV14
p549
aI149139
aa(lp550
V08
p551
aV15
p552
aI148484
aa(lp553
V08
p554
aV16
p555
aI149143
aa(lp556
V08
p557
aV17
p558
aI139131
aa(lp559
V08
p560
aV18
p561
aI120803
aa(lp562
V08
p563
aV19
p564
aI106008
aa(lp565
V08
p566
aV20
p567
aI96926
aa(lp568
V08
p569
aV21
p570
aI89505
aa(lp571
V08
p572
aV22
p573
aI84343
aa(lp574
V08
p575
aV23
p576
aI76607
aa(lp577
V09
p578
aV00
p579
aI71240
aa(lp580
V09
p581
aV01
p582
aI68926
aa(lp583
V09
p584
aV02
p585
aI68347
aa(lp586
V09
p587
aV03
p588
aI82315
aa(lp589
V09
p590
aV04
p591
aI118627
aa(lp592
V09
p593
aV05
p594
aI146665
aa(lp595
V09
p596
aV06
p597
aI157496
aa(lp598
V09
p599
aV07
p600
aI160260
aa(lp601
V09
p602
aV08
p603
aI157114
aa(lp604
V09
p605
aV09
p606
aI158509
aa(lp607
V09
p608
aV10
p609
aI160952
aa(lp610
V09
p611
aV11
p612
aI155998
aa(lp613
V09
p614
aV12
p615
aI147764
aa(lp616
V09
p617
aV13
p618
aI145575
aa(lp619
V09
p620
aV14
p621
aI146808
aa(lp622
V09
p623
aV15
p624
aI150003
aa(lp625
V09
p626
aV16
p627
aI150035
aa(lp628
V09
p629
aV17
p630
aI137552
aa(lp631
V09
p632
aV18
p633
aI118531
aa(lp634
V09
p635
aV19
p636
aI103143
aa(lp637
V09
p638
aV20
p639
aI94678
aa(lp640
V09
p641
aV21
p642
aI87749
aa(lp643
V09
p644
aV22
p645
aI78945
aa(lp646
V09
p647
aV23
p648
aI71616
aa(lp649
V10
p650
aV00
p651
aI68489
aa(lp652
V10
p653
aV01
p654
aI66219
aa(lp655
V10
p656
aV02
p657
aI68717
aa(lp658
V10
p659
aV03
p660
aI82465
aa(lp661
V10
p662
aV04
p663
aI119372
aa(lp664
V10
p665
aV05
p666
aI150966
aa(lp667
V10
p668
aV06
p669
aI167282
aa(lp670
V10
p671
aV07
p672
aI168975
aa(lp673
V10
p674
aV08
p675
aI165532
aa(lp676
V10
p677
aV09
p678
aI165183
aa(lp679
V10
p680
aV10
p681
aI167802
aa(lp682
V10
p683
aV11
p684
aI160743
aa(lp685
V10
p686
aV12
p687
aI153114
aa(lp688
V10
p689
aV13
p690
aI151770
aa(lp691
V10
p692
aV14
p693
aI154918
aa(lp694
V10
p695
aV15
p696
aI156398
aa(lp697
V10
p698
aV16
p699
aI152635
aa(lp700
V10
p701
aV17
p702
aI141319
aa(lp703
V10
p704
aV18
p705
aI121547
aa(lp706
V10
p707
aV19
p708
aI107537
aa(lp709
V10
p710
aV20
p711
aI99619
aa(lp712
V10
p713
aV21
p714
aI89656
aa(lp715
V10
p716
aV22
p717
aI80424
aa(lp718
V10
p719
aV23
p720
aI73044
aa(lp721
V11
p722
aV00
p723
aI68896
aa(lp724
V11
p725
aV01
p726
aI67050
aa(lp727
V11
p728
aV02
p729
aI68117
aa(lp730
V11
p731
aV03
p732
aI81101
aa(lp733
V11
p734
aV04
p735
aI117667
aa(lp736
V11
p737
aV05
p738
aI148218
aa(lp739
V11
p740
aV06
p741
aI161296
aa(lp742
V11
p743
aV07
p744
aI165518
aa(lp745
V11
p746
aV08
p747
aI161642
aa(lp748
V11
p749
aV09
p750
aI161618
aa(lp751
V11
p752
aV10
p753
aI163500
aa(lp754
V11
p755
aV11
p756
aI156469
aa(lp757
V11
p758
aV12
p759
aI150205
aa(lp760
V11
p761
aV13
p762
aI148949
aa(lp763
V11
p764
aV14
p765
aI151868
aa(lp766
V11
p767
aV15
p768
aI152934
aa(lp769
V11
p770
aV16
p771
aI151033
aa(lp772
V11
p773
aV17
p774
aI136456
aa(lp775
V11
p776
aV18
p777
aI116895
aa(lp778
V11
p779
aV19
p780
aI103410
aa(lp781
V11
p782
aV20
p783
aI95661
aa(lp784
V11
p785
aV21
p786
aI87895
aa(lp787
V11
p788
aV22
p789
aI79221
aa(lp790
V11
p791
aV23
p792
aI71127
aa(lp793
V12
p794
aV00
p795
aI66600
aa(lp796
V12
p797
aV01
p798
aI65566
aa(lp799
V12
p800
aV02
p801
aI67127
aa(lp802
V12
p803
aV03
p804
aI80441
aa(lp805
V12
p806
aV04
p807
aI115991
aa(lp808
V12
p809
aV05
p810
aI145223
aa(lp811
V12
p812
aV06
p813
aI164126
aa(lp814
V12
p815
aV07
p816
aI170676
aa(lp817
V12
p818
aV08
p819
aI164971
aa(lp820
V12
p821
aV09
p822
aI165288
aa(lp823
V12
p824
aV10
p825
aI165997
aa(lp826
V12
p827
aV11
p828
aI159560
aa(lp829
V12
p830
aV12
p831
aI154582
aa(lp832
V12
p833
aV13
p834
aI151138
aa(lp835
V12
p836
aV14
p837
aI150337
aa(lp838
V12
p839
aV15
p840
aI151560
aa(lp841
V12
p842
aV16
p843
aI149214
aa(lp844
V12
p845
aV17
p846
aI136455
aa(lp847
V12
p848
aV18
p849
aI118502
aa(lp850
V12
p851
aV19
p852
aI107127
aa(lp853
V12
p854
aV20
p855
aI88766
aa(lp856
V12
p857
aV21
p858
aI47990
aa(lp859
V12
p860
aV22
p861
aI52402
aa(lp862
V12
p863
aV23
p864
aI50571
aa(lp865
V13
p866
aV00
p867
aI47720
aa(lp868
V13
p869
aV01
p870
aI48586
aa(lp871
V13
p872
aV02
p873
aI51697
aa(lp874
V13
p875
aV03
p876
aI56459
aa(lp877
V13
p878
aV04
p879
aI70323
aa(lp880
V13
p881
aV05
p882
aI102970
aa(lp883
V13
p884
aV06
p885
aI147418
aa(lp886
V13
p887
aV07
p888
aI174462
aa(lp889
V13
p890
aV08
p891
aI178523
aa(lp892
V13
p893
aV09
p894
aI172773
aa(lp895
V13
p896
aV10
p897
aI163708
aa(lp898
V13
p899
aV11
p900
aI151571
aa(lp901
V13
p902
aV12
p903
aI142852
aa(lp904
V13
p905
aV13
p906
aI138142
aa(lp907
V13
p908
aV14
p909
aI137156
aa(lp910
V13
p911
aV15
p912
aI136391
aa(lp913
V13
p914
aV16
p915
aI134850
aa(lp916
V13
p917
aV17
p918
aI128665
aa(lp919
V13
p920
aV18
p921
aI115644
aa(lp922
V13
p923
aV19
p924
aI102205
aa(lp925
V13
p926
aV20
p927
aI92918
aa(lp928
V13
p929
aV21
p930
aI83643
aa(lp931
V13
p932
aV22
p933
aI73238
aa(lp934
V13
p935
aV23
p936
aI65414
aa(lp937
V14
p938
aV00
p939
aI61165
aa(lp940
V14
p941
aV01
p942
aI57418
aa(lp943
V14
p944
aV02
p945
aI56001
aa(lp946
V14
p947
aV03
p948
aI58221
aa(lp949
V14
p950
aV04
p951
aI67269
aa(lp952
V14
p953
aV05
p954
aI88849
aa(lp955
V14
p956
aV06
p957
aI125657
aa(lp958
V14
p959
aV07
p960
aI152118
aa(lp961
V14
p962
aV08
p963
aI158852
aa(lp964
V14
p965
aV09
p966
aI153398
aa(lp967
V14
p968
aV10
p969
aI147271
aa(lp970
V14
p971
aV11
p972
aI133464
aa(lp973
V14
p974
aV12
p975
aI124769
aa(lp976
V14
p977
aV13
p978
aI120027
aa(lp979
V14
p980
aV14
p981
aI118551
aa(lp982
V14
p983
aV15
p984
aI120321
aa(lp985
V14
p986
aV16
p987
aI123147
aa(lp988
V14
p989
aV17
p990
aI116967
aa(lp991
V14
p992
aV18
p993
aI103993
aa(lp994
V14
p995
aV19
p996
aI91968
aa(lp997
V14
p998
aV20
p999
aI82678
aa(lp1000
V14
p1001
aV21
p1002
aI75933
aa(lp1003
V14
p1004
aV22
p1005
aI67905
aa(lp1006
V14
p1007
aV23
p1008
aI63073
aa(lp1009
V15
p1010
aV00
p1011
aI59753
aa(lp1012
V15
p1013
aV01
p1014
aI58508
aa(lp1015
V15
p1016
aV02
p1017
aI62101
aa(lp1018
V15
p1019
aV03
p1020
aI74203
aa(lp1021
V15
p1022
aV04
p1023
aI105766
aa(lp1024
V15
p1025
aV05
p1026
aI132362
aa(lp1027
V15
p1028
aV06
p1029
aI148438
aa(lp1030
V15
p1031
aV07
p1032
aI155010
aa(lp1033
V15
p1034
aV08
p1035
aI153252
aa(lp1036
V15
p1037
aV09
p1038
aI156941
aa(lp1039
V15
p1040
aV10
p1041
aI162114
aa(lp1042
V15
p1043
aV11
p1044
aI153633
aa(lp1045
V15
p1046
aV12
p1047
aI144232
aa(lp1048
V15
p1049
aV13
p1050
aI141257
aa(lp1051
V15
p1052
aV14
p1053
aI140020
aa(lp1054
V15
p1055
aV15
p1056
aI142138
aa(lp1057
V15
p1058
aV16
p1059
aI144384
aa(lp1060
V15
p1061
aV17
p1062
aI136321
aa(lp1063
V15
p1064
aV18
p1065
aI118968
aa(lp1066
V15
p1067
aV19
p1068
aI104853
aa(lp1069
V15
p1070
aV20
p1071
aI95210
aa(lp1072
V15
p1073
aV21
p1074
aI87376
aa(lp1075
V15
p1076
aV22
p1077
aI80242
aa(lp1078
V15
p1079
aV23
p1080
aI75712
aa(lp1081
V16
p1082
aV00
p1083
aI72058
aa(lp1084
V16
p1085
aV01
p1086
aI70010
aa(lp1087
V16
p1088
aV02
p1089
aI68254
aa(lp1090
V16
p1091
aV03
p1092
aI81940
aa(lp1093
V16
p1094
aV04
p1095
aI120109
aa(lp1096
V16
p1097
aV05
p1098
aI151104
aa(lp1099
V16
p1100
aV06
p1101
aI159664
aa(lp1102
V16
p1103
aV07
p1104
aI158084
aa(lp1105
V16
p1106
aV08
p1107
aI153718
aa(lp1108
V16
p1109
aV09
p1110
aI153101
aa(lp1111
V16
p1112
aV10
p1113
aI156056
aa(lp1114
V16
p1115
aV11
p1116
aI149705
aa(lp1117
V16
p1118
aV12
p1119
aI146351
aa(lp1120
V16
p1121
aV13
p1122
aI139006
aa(lp1123
V16
p1124
aV14
p1125
aI139514
aa(lp1126
V16
p1127
aV15
p1128
aI141462
aa(lp1129
V16
p1130
aV16
p1131
aI141853
aa(lp1132
V16
p1133
aV17
p1134
aI131956
aa(lp1135
V16
p1136
aV18
p1137
aI116347
aa(lp1138
V16
p1139
aV19
p1140
aI102075
aa(lp1141
V16
p1142
aV20
p1143
aI92026
aa(lp1144
V16
p1145
aV21
p1146
aI84136
aa(lp1147
V16
p1148
aV22
p1149
aI75558
aa(lp1150
V16
p1151
aV23
p1152
aI69062
aa(lp1153
V17
p1154
aV00
p1155
aI64513
aa(lp1156
V17
p1157
aV01
p1158
aI64187
aa(lp1159
V17
p1160
aV02
p1161
aI67318
aa(lp1162
V17
p1163
aV03
p1164
aI82888
aa(lp1165
V17
p1166
aV04
p1167
aI122389
aa(lp1168
V17
p1169
aV05
p1170
aI154862
aa(lp1171
V17
p1172
aV06
p1173
aI164917
aa(lp1174
V17
p1175
aV07
p1176
aI164196
aa(lp1177
V17
p1178
aV08
p1179
aI157558
aa(lp1180
V17
p1181
aV09
p1182
aI152817
aa(lp1183
V17
p1184
aV10
p1185
aI155718
aa(lp1186
V17
p1187
aV11
p1188
aI150194
aa(lp1189
V17
p1190
aV12
p1191
aI144267
aa(lp1192
V17
p1193
aV13
p1194
aI142424
aa(lp1195
V17
p1196
aV14
p1197
aI145470
aa(lp1198
V17
p1199
aV15
p1200
aI146120
aa(lp1201
V17
p1202
aV16
p1203
aI145734
aa(lp1204
V17
p1205
aV17
p1206
aI136430
aa(lp1207
V17
p1208
aV18
p1209
aI121868
aa(lp1210
V17
p1211
aV19
p1212
aI105907
aa(lp1213
V17
p1214
aV20
p1215
aI94091
aa(lp1216
V17
p1217
aV21
p1218
aI86568
aa(lp1219
V17
p1220
aV22
p1221
aI77685
aa(lp1222
V17
p1223
aV23
p1224
aI70691
aa(lp1225
V18
p1226
aV00
p1227
aI67668
aa(lp1228
V18
p1229
aV01
p1230
aI63906
aa(lp1231
V18
p1232
aV02
p1233
aI65191
aa(lp1234
V18
p1235
aV03
p1236
aI79648
aa(lp1237
V18
p1238
aV04
p1239
aI117997
aa(lp1240
V18
p1241
aV05
p1242
aI148938
aa(lp1243
V18
p1244
aV06
p1245
aI159200
aa(lp1246
V18
p1247
aV07
p1248
aI159091
aa(lp1249
V18
p1250
aV08
p1251
aI154601
aa(lp1252
V18
p1253
aV09
p1254
aI155381
aa(lp1255
V18
p1256
aV10
p1257
aI158920
aa(lp1258
V18
p1259
aV11
p1260
aI150640
aa(lp1261
V18
p1262
aV12
p1263
aI146855
aa(lp1264
V18
p1265
aV13
p1266
aI143766
aa(lp1267
V18
p1268
aV14
p1269
aI144454
aa(lp1270
V18
p1271
aV15
p1272
aI147763
aa(lp1273
V18
p1274
aV16
p1275
aI145340
aa(lp1276
V18
p1277
aV17
p1278
aI132718
aa(lp1279
V18
p1280
aV18
p1281
aI114176
aa(lp1282
V18
p1283
aV19
p1284
aI102303
aa(lp1285
V18
p1286
aV20
p1287
aI93050
aa(lp1288
V18
p1289
aV21
p1290
aI84809
aa(lp1291
V18
p1292
aV22
p1293
aI79293
aa(lp1294
V18
p1295
aV23
p1296
aI76400
aa(lp1297
V19
p1298
aV00
p1299
aI67612
aa(lp1300
V19
p1301
aV01
p1302
aI66808
aa(lp1303
V19
p1304
aV02
p1305
aI65957
aa(lp1306
V19
p1307
aV03
p1308
aI79334
aa(lp1309
V19
p1310
aV04
p1311
aI115222
aa(lp1312
V19
p1313
aV05
p1314
aI149531
aa(lp1315
V19
p1316
aV06
p1317
aI166384
aa(lp1318
V19
p1319
aV07
p1320
aI164502
aa(lp1321
V19
p1322
aV08
p1323
aI158887
aa(lp1324
V19
p1325
aV09
p1326
aI157796
aa(lp1327
V19
p1328
aV10
p1329
aI161369
aa(lp1330
V19
p1331
aV11
p1332
aI154798
aa(lp1333
V19
p1334
aV12
p1335
aI147156
aa(lp1336
V19
p1337
aV13
p1338
aI146394
aa(lp1339
V19
p1340
aV14
p1341
aI148383
aa(lp1342
V19
p1343
aV15
p1344
aI147773
aa(lp1345
V19
p1346
aV16
p1347
aI145587
aa(lp1348
V19
p1349
aV17
p1350
aI134621
aa(lp1351
V19
p1352
aV18
p1353
aI168140
aa(lp1354
V19
p1355
aV19
p1356
aI107792
aa(lp1357
V19
p1358
aV20
p1359
aI96010
aa(lp1360
V19
p1361
aV21
p1362
aI87400
aa(lp1363
V19
p1364
aV22
p1365
aI79701
aa(lp1366
V19
p1367
aV23
p1368
aI74249
aa(lp1369
V20
p1370
aV00
p1371
aI69623
aa(lp1372
V20
p1373
aV01
p1374
aI66487
aa(lp1375
V20
p1376
aV02
p1377
aI67177
aa(lp1378
V20
p1379
aV03
p1380
aI72833
aa(lp1381
V20
p1382
aV04
p1383
aI85074
aa(lp1384
V20
p1385
aV05
p1386
aI116357
aa(lp1387
V20
p1388
aV06
p1389
aI161297
aa(lp1390
V20
p1391
aV07
p1392
aI185068
aa(lp1393
V20
p1394
aV08
p1395
aI181917
aa(lp1396
V20
p1397
aV09
p1398
aI176342
aa(lp1399
V20
p1400
aV10
p1401
aI172383
aa(lp1402
V20
p1403
aV11
p1404
aI165226
aa(lp1405
V20
p1406
aV12
p1407
aI154957
aa(lp1408
V20
p1409
aV13
p1410
aI148885
aa(lp1411
V20
p1412
aV14
p1413
aI148915
aa(lp1414
V20
p1415
aV15
p1416
aI146118
aa(lp1417
V20
p1418
aV16
p1419
aI149365
aa(lp1420
V20
p1421
aV17
p1422
aI142902
aa(lp1423
V20
p1424
aV18
p1425
aI129859
aa(lp1426
V20
p1427
aV19
p1428
aI115653
aa(lp1429
V20
p1430
aV20
p1431
aI104291
aa(lp1432
V20
p1433
aV21
p1434
aI98026
aa(lp1435
V20
p1436
aV22
p1437
aI91315
aa(lp1438
V20
p1439
aV23
p1440
aI76877
aa(lp1441
V21
p1442
aV00
p1443
aI72243
aa(lp1444
V21
p1445
aV01
p1446
aI69307
aa(lp1447
V21
p1448
aV02
p1449
aI68103
aa(lp1450
V21
p1451
aV03
p1452
aI70060
aa(lp1453
V21
p1454
aV04
p1455
aI77053
aa(lp1456
V21
p1457
aV05
p1458
aI103412
aa(lp1459
V21
p1460
aV06
p1461
aI230536
aa(lp1462
V21
p1463
aV07
p1464
aI273779
aa(lp1465
V21
p1466
aV08
p1467
aI274721
aa(lp1468
V21
p1469
aV09
p1470
aI275153
aa(lp1471
V21
p1472
aV10
p1473
aI259842
aa(lp1474
V21
p1475
aV11
p1476
aI246650
aa(lp1477
V21
p1478
aV12
p1479
aI231486
aa(lp1480
V21
p1481
aV13
p1482
aI206840
aa(lp1483
V21
p1484
aV14
p1485
aI216336
aa(lp1486
V21
p1487
aV15
p1488
aI208455
aa(lp1489
V21
p1490
aV16
p1491
aI218912
aa(lp1492
V21
p1493
aV17
p1494
aI215350
aa(lp1495
V21
p1496
aV18
p1497
aI189823
aa(lp1498
V21
p1499
aV19
p1500
aI187638
aa(lp1501
V21
p1502
aV20
p1503
aI171053
aa(lp1504
V21
p1505
aV21
p1506
aI160890
aa(lp1507
V21
p1508
aV22
p1509
aI174336
aa(lp1510
V21
p1511
aV23
p1512
aI65705
aa(lp1513
V22
p1514
aV00
p1515
aI59259
aa(lp1516
V22
p1517
aV01
p1518
aI58146
aa(lp1519
V22
p1520
aV02
p1521
aI60858
aa(lp1522
V22
p1523
aV03
p1524
aI77075
aa(lp1525
V22
p1526
aV04
p1527
aI117708
aa(lp1528
V22
p1529
aV05
p1530
aI150412
aa(lp1531
V22
p1532
aV06
p1533
aI160465
aa(lp1534
V22
p1535
aV07
p1536
aI160767
aa(lp1537
V22
p1538
aV08
p1539
aI156859
aa(lp1540
V22
p1541
aV09
p1542
aI158390
aa(lp1543
V22
p1544
aV10
p1545
aI161327
aa(lp1546
V22
p1547
aV11
p1548
aI155716
aa(lp1549
V22
p1550
aV12
p1551
aI148586
aa(lp1552
V22
p1553
aV13
p1554
aI147574
aa(lp1555
V22
p1556
aV14
p1557
aI150886
aa(lp1558
V22
p1559
aV15
p1560
aI154736
aa(lp1561
V22
p1562
aV16
p1563
aI155116
aa(lp1564
V22
p1565
aV17
p1566
aI143644
aa(lp1567
V22
p1568
aV18
p1569
aI124127
aa(lp1570
V22
p1571
aV19
p1572
aI107756
aa(lp1573
V22
p1574
aV20
p1575
aI95823
aa(lp1576
V22
p1577
aV21
p1578
aI87503
aa(lp1579
V22
p1580
aV22
p1581
aI80329
aa(lp1582
V22
p1583
aV23
p1584
aI74422
aa(lp1585
V23
p1586
aV00
p1587
aI70579
aa(lp1588
V23
p1589
aV01
p1590
aI68746
aa(lp1591
V23
p1592
aV02
p1593
aI67906
aa(lp1594
V23
p1595
aV03
p1596
aI82875
aa(lp1597
V23
p1598
aV04
p1599
aI124279
aa(lp1600
V23
p1601
aV05
p1602
aI156990
aa(lp1603
V23
p1604
aV06
p1605
aI170078
aa(lp1606
V23
p1607
aV07
p1608
aI165860
aa(lp1609
V23
p1610
aV08
p1611
aI160264
aa(lp1612
V23
p1613
aV09
p1614
aI160163
aa(lp1615
V23
p1616
aV10
p1617
aI161880
aa(lp1618
V23
p1619
aV11
p1620
aI155731
aa(lp1621
V23
p1622
aV12
p1623
aI149244
aa(lp1624
V23
p1625
aV13
p1626
aI146341
aa(lp1627
V23
p1628
aV14
p1629
aI147492
aa(lp1630
V23
p1631
aV15
p1632
aI151777
aa(lp1633
V23
p1634
aV16
p1635
aI152833
aa(lp1636
V23
p1637
aV17
p1638
aI141912
aa(lp1639
V23
p1640
aV18
p1641
aI125193
aa(lp1642
V23
p1643
aV19
p1644
aI109108
aa(lp1645
V23
p1646
aV20
p1647
aI96629
aa(lp1648
V23
p1649
aV21
p1650
aI88415
aa(lp1651
V23
p1652
aV22
p1653
aI78679
aa(lp1654
V23
p1655
aV23
p1656
aI73249
aa(lp1657
V24
p1658
aV00
p1659
aI69168
aa(lp1660
V24
p1661
aV01
p1662
aI68451
aa(lp1663
V24
p1664
aV02
p1665
aI69741
aa(lp1666
V24
p1667
aV03
p1668
aI81649
aa(lp1669
V24
p1670
aV04
p1671
aI124773
aa(lp1672
V24
p1673
aV05
p1674
aI155931
aa(lp1675
V24
p1676
aV06
p1677
aI163244
aa(lp1678
V24
p1679
aV07
p1680
aI159124
aa(lp1681
V24
p1682
aV08
p1683
aI154690
aa(lp1684
V24
p1685
aV09
p1686
aI154906
aa(lp1687
V24
p1688
aV10
p1689
aI156981
aa(lp1690
V24
p1691
aV11
p1692
aI151356
aa(lp1693
V24
p1694
aV12
p1695
aI145267
aa(lp1696
V24
p1697
aV13
p1698
aI145657
aa(lp1699
V24
p1700
aV14
p1701
aI150008
aa(lp1702
V24
p1703
aV15
p1704
aI151399
aa(lp1705
V24
p1706
aV16
p1707
aI153428
aa(lp1708
V24
p1709
aV17
p1710
aI143812
aa(lp1711
V24
p1712
aV18
p1713
aI128433
aa(lp1714
V24
p1715
aV19
p1716
aI117264
aa(lp1717
V24
p1718
aV20
p1719
aI106638
aa(lp1720
V24
p1721
aV21
p1722
aI99747
aa(lp1723
V24
p1724
aV22
p1725
aI84788
aa(lp1726
V24
p1727
aV23
p1728
aI78359
aa(lp1729
V25
p1730
aV00
p1731
aI72147
aa(lp1732
V25
p1733
aV01
p1734
aI69202
aa(lp1735
V25
p1736
aV02
p1737
aI69272
aa(lp1738
V25
p1739
aV03
p1740
aI85215
aa(lp1741
V25
p1742
aV04
p1743
aI131654
aa(lp1744
V25
p1745
aV05
p1746
aI168688
aa(lp1747
V25
p1748
aV06
p1749
aI173420
aa(lp1750
V25
p1751
aV07
p1752
aI169366
aa(lp1753
V25
p1754
aV08
p1755
aI166232
aa(lp1756
V25
p1757
aV09
p1758
aI167596
aa(lp1759
V25
p1760
aV10
p1761
aI171076
aa(lp1762
V25
p1763
aV11
p1764
aI166463
aa(lp1765
V25
p1766
aV12
p1767
aI161782
aa(lp1768
V25
p1769
aV13
p1770
aI160471
aa(lp1771
V25
p1772
aV14
p1773
aI164929
aa(lp1774
V25
p1775
aV15
p1776
aI163250
aa(lp1777
V25
p1778
aV16
p1779
aI161390
aa(lp1780
V25
p1781
aV17
p1782
aI149479
aa(lp1783
V25
p1784
aV18
p1785
aI136388
aa(lp1786
V25
p1787
aV19
p1788
aI120484
aa(lp1789
V25
p1790
aV20
p1791
aI110725
aa(lp1792
V25
p1793
aV21
p1794
aI97493
aa(lp1795
V25
p1796
aV22
p1797
aI88468
aa(lp1798
V25
p1799
aV23
p1800
aI73267
aa(lp1801
V26
p1802
aV00
p1803
aI69459
aa(lp1804
V26
p1805
aV01
p1806
aI70596
aa(lp1807
V26
p1808
aV02
p1809
aI74471
aa(lp1810
V26
p1811
aV03
p1812
aI91028
aa(lp1813
V26
p1814
aV04
p1815
aI130588
aa(lp1816
V26
p1817
aV05
p1818
aI164412
aa(lp1819
V26
p1820
aV06
p1821
aI173028
aa(lp1822
V26
p1823
aV07
p1824
aI169740
aa(lp1825
V26
p1826
aV08
p1827
aI164179
aa(lp1828
V26
p1829
aV09
p1830
aI163341
aa(lp1831
V26
p1832
aV10
p1833
aI165382
aa(lp1834
V26
p1835
aV11
p1836
aI161756
aa(lp1837
V26
p1838
aV12
p1839
aI154573
aa(lp1840
V26
p1841
aV13
p1842
aI153662
aa(lp1843
V26
p1844
aV14
p1845
aI153702
aa(lp1846
V26
p1847
aV15
p1848
aI149694
aa(lp1849
V26
p1850
aV16
p1851
aI146649
aa(lp1852
V26
p1853
aV17
p1854
aI137159
aa(lp1855
V26
p1856
aV18
p1857
aI121714
aa(lp1858
V26
p1859
aV19
p1860
aI105918
aa(lp1861
V26
p1862
aV20
p1863
aI98644
aa(lp1864
V26
p1865
aV21
p1866
aI89674
aa(lp1867
V26
p1868
aV22
p1869
aI80818
aa(lp1870
V26
p1871
aV23
p1872
aI71477
aa(lp1873
V27
p1874
aV00
p1875
aI65344
aa(lp1876
V27
p1877
aV01
p1878
aI63860
aa(lp1879
V27
p1880
aV02
p1881
aI64724
aa(lp1882
V27
p1883
aV03
p1884
aI67649
aa(lp1885
V27
p1886
aV04
p1887
aI79049
aa(lp1888
V27
p1889
aV05
p1890
aI111121
aa(lp1891
V27
p1892
aV06
p1893
aI152604
aa(lp1894
V27
p1895
aV07
p1896
aI173957
aa(lp1897
V27
p1898
aV08
p1899
aI171172
aa.