(lp0
(lp1
V01
p2
aV00
p3
aI67859
aa(lp4
V01
p5
aV01
p6
aI66684
aa(lp7
V01
p8
aV02
p9
aI69715
aa(lp10
V01
p11
aV03
p12
aI86072
aa(lp13
V01
p14
aV04
p15
aI132635
aa(lp16
V01
p17
aV05
p18
aI171892
aa(lp19
V01
p20
aV06
p21
aI179555
aa(lp22
V01
p23
aV07
p24
aI176689
aa(lp25
V01
p26
aV08
p27
aI173323
aa(lp28
V01
p29
aV09
p30
aI176093
aa(lp31
V01
p32
aV10
p33
aI179940
aa(lp34
V01
p35
aV11
p36
aI171720
aa(lp37
V01
p38
aV12
p39
aI164630
aa(lp40
V01
p41
aV13
p42
aI162053
aa(lp43
V01
p44
aV14
p45
aI161483
aa(lp46
V01
p47
aV15
p48
aI161599
aa(lp49
V01
p50
aV16
p51
aI158869
aa(lp52
V01
p53
aV17
p54
aI148042
aa(lp55
V01
p56
aV18
p57
aI130780
aa(lp58
V01
p59
aV19
p60
aI113358
aa(lp61
V01
p62
aV20
p63
aI103692
aa(lp64
V01
p65
aV21
p66
aI97588
aa(lp67
V01
p68
aV22
p69
aI89121
aa(lp70
V01
p71
aV23
p72
aI81338
aa(lp73
V02
p74
aV00
p75
aI75416
aa(lp76
V02
p77
aV01
p78
aI73387
aa(lp79
V02
p80
aV02
p81
aI72979
aa(lp82
V02
p83
aV03
p84
aI76876
aa(lp85
V02
p86
aV04
p87
aI89942
aa(lp88
V02
p89
aV05
p90
aI122676
aa(lp91
V02
p92
aV06
p93
aI166698
aa(lp94
V02
p95
aV07
p96
aI195400
aa(lp97
V02
p98
aV08
p99
aI199272
aa(lp100
V02
p101
aV09
p102
aI195207
aa(lp103
V02
p104
aV10
p105
aI194293
aa(lp106
V02
p107
aV11
p108
aI182259
aa(lp109
V02
p110
aV12
p111
aI173831
aa(lp112
V02
p113
aV13
p114
aI170546
aa(lp115
V02
p116
aV14
p117
aI168875
aa(lp118
V02
p119
aV15
p120
aI169931
aa(lp121
V02
p122
aV16
p123
aI160159
aa(lp124
V02
p125
aV17
p126
aI148518
aa(lp127
V02
p128
aV18
p129
aI125584
aa(lp130
V02
p131
aV19
p132
aI105062
aa(lp133
V02
p134
aV20
p135
aI100168
aa(lp136
V02
p137
aV21
p138
aI94923
aa(lp139
V02
p140
aV22
p141
aI94400
aa(lp142
V02
p143
aV23
p144
aI88054
aa(lp145
V03
p146
aV00
p147
aI80473
aa(lp148
V03
p149
aV01
p150
aI78099
aa(lp151
V03
p152
aV02
p153
aI77186
aa(lp154
V03
p155
aV03
p156
aI78919
aa(lp157
V03
p158
aV04
p159
aI86164
aa(lp160
V03
p161
aV05
p162
aI109386
aa(lp163
V03
p164
aV06
p165
aI147488
aa(lp166
V03
p167
aV07
p168
aI179433
aa(lp169
V03
p170
aV08
p171
aI189084
aa(lp172
V03
p173
aV09
p174
aI186782
aa(lp175
V03
p176
aV10
p177
aI179265
aa(lp178
V03
p179
aV11
p180
aI163312
aa(lp181
V03
p182
aV12
p183
aI147224
aa(lp184
V03
p185
aV13
p186
aI137394
aa(lp187
V03
p188
aV14
p189
aI132277
aa(lp190
V03
p191
aV15
p192
aI136412
aa(lp193
V03
p194
aV16
p195
aI138055
aa(lp196
V03
p197
aV17
p198
aI131612
aa(lp199
V03
p200
aV18
p201
aI114612
aa(lp202
V03
p203
aV19
p204
aI96487
aa(lp205
V03
p206
aV20
p207
aI91281
aa(lp208
V03
p209
aV21
p210
aI87452
aa(lp211
V03
p212
aV22
p213
aI80232
aa(lp214
V03
p215
aV23
p216
aI73188
aa(lp217
V04
p218
aV00
p219
aI70544
aa(lp220
V04
p221
aV01
p222
aI69072
aa(lp223
V04
p224
aV02
p225
aI69950
aa(lp226
V04
p227
aV03
p228
aI86631
aa(lp229
V04
p230
aV04
p231
aI133504
aa(lp232
V04
p233
aV05
p234
aI167317
aa(lp235
V04
p236
aV06
p237
aI170783
aa(lp238
V04
p239
aV07
p240
aI165941
aa(lp241
V04
p242
aV08
p243
aI161118
aa(lp244
V04
p245
aV09
p246
aI162639
aa(lp247
V04
p248
aV10
p249
aI165603
aa(lp250
V04
p251
aV11
p252
aI159550
aa(lp253
V04
p254
aV12
p255
aI153481
aa(lp256
V04
p257
aV13
p258
aI147579
aa(lp259
V04
p260
aV14
p261
aI146589
aa(lp262
V04
p263
aV15
p264
aI149617
aa(lp265
V04
p266
aV16
p267
aI152584
aa(lp268
V04
p269
aV17
p270
aI145064
aa(lp271
V04
p272
aV18
p273
aI123987
aa(lp274
V04
p275
aV19
p276
aI109696
aa(lp277
V04
p278
aV20
p279
aI99006
aa(lp280
V04
p281
aV21
p282
aI91280
aa(lp283
V04
p284
aV22
p285
aI82942
aa(lp286
V04
p287
aV23
p288
aI75045
aa(lp289
V05
p290
aV00
p291
aI71494
aa(lp292
V05
p293
aV01
p294
aI70387
aa(lp295
V05
p296
aV02
p297
aI72426
aa(lp298
V05
p299
aV03
p300
aI88804
aa(lp301
V05
p302
aV04
p303
aI137236
aa(lp304
V05
p305
aV05
p306
aI173228
aa(lp307
V05
p308
aV06
p309
aI175949
aa(lp310
V05
p311
aV07
p312
aI170829
aa(lp313
V05
p314
aV08
p315
aI167746
aa(lp316
V05
p317
aV09
p318
aI167104
aa(lp319
V05
p320
aV10
p321
aI171758
aa(lp322
V05
p323
aV11
p324
aI163704
aa(lp325
V05
p326
aV12
p327
aI158198
aa(lp328
V05
p329
aV13
p330
aI155143
aa(lp331
V05
p332
aV14
p333
aI155681
aa(lp334
V05
p335
aV15
p336
aI157391
aa(lp337
V05
p338
aV16
p339
aI156134
aa(lp340
V05
p341
aV17
p342
aI145230
aa(lp343
V05
p344
aV18
p345
aI130060
aa(lp346
V05
p347
aV19
p348
aI115863
aa(lp349
V05
p350
aV20
p351
aI105828
aa(lp352
V05
p353
aV21
p354
aI96323
aa(lp355
V05
p356
aV22
p357
aI85148
aa(lp358
V05
p359
aV23
p360
aI76495
aa(lp361
V06
p362
aV00
p363
aI72885
aa(lp364
V06
p365
aV01
p366
aI70795
aa(lp367
V06
p368
aV02
p369
aI73860
aa(lp370
V06
p371
aV03
p372
aI90670
aa(lp373
V06
p374
aV04
p375
aI138525
aa(lp376
V06
p377
aV05
p378
aI176175
aa(lp379
V06
p380
aV06
p381
aI179876
aa(lp382
V06
p383
aV07
p384
aI174886
aa(lp385
V06
p386
aV08
p387
aI170337
aa(lp388
V06
p389
aV09
p390
aI171494
aa(lp391
V06
p392
aV10
p393
aI173495
aa(lp394
V06
p395
aV11
p396
aI169935
aa(lp397
V06
p398
aV12
p399
aI161684
aa(lp400
V06
p401
aV13
p402
aI159417
aa(lp403
V06
p404
aV14
p405
aI160749
aa(lp406
V06
p407
aV15
p408
aI161963
aa(lp409
V06
p410
aV16
p411
aI161370
aa(lp412
V06
p413
aV17
p414
aI150307
aa(lp415
V06
p416
aV18
p417
aI132271
aa(lp418
V06
p419
aV19
p420
aI113333
aa(lp421
V06
p422
aV20
p423
aI100480
aa(lp424
V06
p425
aV21
p426
aI95399
aa(lp427
V06
p428
aV22
p429
aI87294
aa(lp430
V06
p431
aV23
p432
aI80324
aa(lp433
V07
p434
aV00
p435
aI76501
aa(lp436
V07
p437
aV01
p438
aI74124
aa(lp439
V07
p440
aV02
p441
aI75549
aa(lp442
V07
p443
aV03
p444
aI93308
aa(lp445
V07
p446
aV04
p447
aI141716
aa(lp448
V07
p449
aV05
p450
aI175549
aa(lp451
V07
p452
aV06
p453
aI178702
aa(lp454
V07
p455
aV07
p456
aI171943
aa(lp457
V07
p458
aV08
p459
aI166010
aa(lp460
V07
p461
aV09
p462
aI166871
aa(lp463
V07
p464
aV10
p465
aI168876
aa(lp466
V07
p467
aV11
p468
aI166839
aa(lp469
V07
p470
aV12
p471
aI161073
aa(lp472
V07
p473
aV13
p474
aI158900
aa(lp475
V07
p476
aV14
p477
aI160529
aa(lp478
V07
p479
aV15
p480
aI162607
aa(lp481
V07
p482
aV16
p483
aI163269
aa(lp484
V07
p485
aV17
p486
aI153586
aa(lp487
V07
p488
aV18
p489
aI131918
aa(lp490
V07
p491
aV19
p492
aI108892
aa(lp493
V07
p494
aV20
p495
aI103287
aa(lp496
V07
p497
aV21
p498
aI102531
aa(lp499
V07
p500
aV22
p501
aI90001
aa(lp502
V07
p503
aV23
p504
aI79068
aa(lp505
V08
p506
aV00
p507
aI74442
aa(lp508
V08
p509
aV01
p510
aI73455
aa(lp511
V08
p512
aV02
p513
aI76854
aa(lp514
V08
p515
aV03
p516
aI92356
aa(lp517
V08
p518
aV04
p519
aI133338
aa(lp520
V08
p521
aV05
p522
aI170398
aa(lp523
V08
p524
aV06
p525
aI178805
aa(lp526
V08
p527
aV07
p528
aI176393
aa(lp529
V08
p530
aV08
p531
aI171191
aa(lp532
V08
p533
aV09
p534
aI172677
aa(lp535
V08
p536
aV10
p537
aI175267
aa(lp538
V08
p539
aV11
p540
aI169914
aa(lp541
V08
p542
aV12
p543
aI162627
aa(lp544
V08
p545
aV13
p546
aI158679
aa(lp547
V08
p548
aV14
p549
aI156825
aa(lp550
V08
p551
aV15
p552
aI154299
aa(lp553
V08
p554
aV16
p555
aI155724
aa(lp556
V08
p557
aV17
p558
aI147317
aa(lp559
V08
p560
aV18
p561
aI132303
aa(lp562
V08
p563
aV19
p564
aI121015
aa(lp565
V08
p566
aV20
p567
aI111980
aa(lp568
V08
p569
aV21
p570
aI102363
aa(lp571
V08
p572
aV22
p573
aI88232
aa(lp574
V08
p575
aV23
p576
aI80414
aa(lp577
V09
p578
aV00
p579
aI75422
aa(lp580
V09
p581
aV01
p582
aI73362
aa(lp583
V09
p584
aV02
p585
aI72818
aa(lp586
V09
p587
aV03
p588
aI76017
aa(lp589
V09
p590
aV04
p591
aI88928
aa(lp592
V09
p593
aV05
p594
aI121324
aa(lp595
V09
p596
aV06
p597
aI164829
aa(lp598
V09
p599
aV07
p600
aI187660
aa(lp601
V09
p602
aV08
p603
aI187823
aa(lp604
V09
p605
aV09
p606
aI181772
aa(lp607
V09
p608
aV10
p609
aI177260
aa(lp610
V09
p611
aV11
p612
aI166596
aa(lp613
V09
p614
aV12
p615
aI156569
aa(lp616
V09
p617
aV13
p618
aI150539
aa(lp619
V09
p620
aV14
p621
aI148686
aa(lp622
V09
p623
aV15
p624
aI149540
aa(lp625
V09
p626
aV16
p627
aI150008
aa(lp628
V09
p629
aV17
p630
aI142537
aa(lp631
V09
p632
aV18
p633
aI129346
aa(lp634
V09
p635
aV19
p636
aI118658
aa(lp637
V09
p638
aV20
p639
aI108890
aa(lp640
V09
p641
aV21
p642
aI99425
aa(lp643
V09
p644
aV22
p645
aI87472
aa(lp646
V09
p647
aV23
p648
aI79842
aa(lp649
V10
p650
aV00
p651
aI75290
aa(lp652
V10
p653
aV01
p654
aI73048
aa(lp655
V10
p656
aV02
p657
aI73440
aa(lp658
V10
p659
aV03
p660
aI74111
aa(lp661
V10
p662
aV04
p663
aI82745
aa(lp664
V10
p665
aV05
p666
aI103729
aa(lp667
V10
p668
aV06
p669
aI142645
aa(lp670
V10
p671
aV07
p672
aI174066
aa(lp673
V10
p674
aV08
p675
aI184395
aa(lp676
V10
p677
aV09
p678
aI180984
aa(lp679
V10
p680
aV10
p681
aI175358
aa(lp682
V10
p683
aV11
p684
aI164695
aa(lp685
V10
p686
aV12
p687
aI156022
aa(lp688
V10
p689
aV13
p690
aI150654
aa(lp691
V10
p692
aV14
p693
aI152888
aa(lp694
V10
p695
aV15
p696
aI158223
aa(lp697
V10
p698
aV16
p699
aI161068
aa(lp700
V10
p701
aV17
p702
aI156972
aa(lp703
V10
p704
aV18
p705
aI144173
aa(lp706
V10
p707
aV19
p708
aI124365
aa(lp709
V10
p710
aV20
p711
aI116519
aa(lp712
V10
p713
aV21
p714
aI113242
aa(lp715
V10
p716
aV22
p717
aI111295
aa(lp718
V10
p719
aV23
p720
aI106877
aa(lp721
V11
p722
aV00
p723
aI104540
aa(lp724
V11
p725
aV01
p726
aI105428
aa(lp727
V11
p728
aV02
p729
aI111732
aa(lp730
V11
p731
aV03
p732
aI128722
aa(lp733
V11
p734
aV04
p735
aI172795
aa(lp736
V11
p737
aV05
p738
aI208825
aa(lp739
V11
p740
aV06
p741
aI218039
aa(lp742
V11
p743
aV07
p744
aI221470
aa(lp745
V11
p746
aV08
p747
aI218472
aa(lp748
V11
p749
aV09
p750
aI225782
aa(lp751
V11
p752
aV10
p753
aI237137
aa(lp754
V11
p755
aV11
p756
aI233646
aa(lp757
V11
p758
aV12
p759
aI231519
aa(lp760
V11
p761
aV13
p762
aI230753
aa(lp763
V11
p764
aV14
p765
aI228840
aa(lp766
V11
p767
aV15
p768
aI231388
aa(lp769
V11
p770
aV16
p771
aI228026
aa(lp772
V11
p773
aV17
p774
aI218234
aa(lp775
V11
p776
aV18
p777
aI200116
aa(lp778
V11
p779
aV19
p780
aI188792
aa(lp781
V11
p782
aV20
p783
aI139551
aa(lp784
V11
p785
aV21
p786
aI105120
aa(lp787
V11
p788
aV22
p789
aI95908
aa(lp790
V11
p791
aV23
p792
aI88161
aa(lp793
V12
p794
aV00
p795
aI85988
aa(lp796
V12
p797
aV01
p798
aI85460
aa(lp799
V12
p800
aV02
p801
aI88643
aa(lp802
V12
p803
aV03
p804
aI106107
aa(lp805
V12
p806
aV04
p807
aI148005
aa(lp808
V12
p809
aV05
p810
aI175057
aa(lp811
V12
p812
aV06
p813
aI178938
aa(lp814
V12
p815
aV07
p816
aI177143
aa(lp817
V12
p818
aV08
p819
aI174033
aa(lp820
V12
p821
aV09
p822
aI174422
aa(lp823
V12
p824
aV10
p825
aI177843
aa(lp826
V12
p827
aV11
p828
aI172200
aa(lp829
V12
p830
aV12
p831
aI165548
aa(lp832
V12
p833
aV13
p834
aI163912
aa(lp835
V12
p836
aV14
p837
aI166358
aa(lp838
V12
p839
aV15
p840
aI168679
aa(lp841
V12
p842
aV16
p843
aI165825
aa(lp844
V12
p845
aV17
p846
aI154122
aa(lp847
V12
p848
aV18
p849
aI131862
aa(lp850
V12
p851
aV19
p852
aI121223
aa(lp853
V12
p854
aV20
p855
aI110950
aa(lp856
V12
p857
aV21
p858
aI101743
aa(lp859
V12
p860
aV22
p861
aI92106
aa(lp862
V12
p863
aV23
p864
aI85354
aa(lp865
V13
p866
aV00
p867
aI82126
aa(lp868
V13
p869
aV01
p870
aI82669
aa(lp871
V13
p872
aV02
p873
aI82329
aa(lp874
V13
p875
aV03
p876
aI97454
aa(lp877
V13
p878
aV04
p879
aI139901
aa(lp880
V13
p881
aV05
p882
aI171629
aa(lp883
V13
p884
aV06
p885
aI178220
aa(lp886
V13
p887
aV07
p888
aI176242
aa(lp889
V13
p890
aV08
p891
aI173777
aa(lp892
V13
p893
aV09
p894
aI175826
aa(lp895
V13
p896
aV10
p897
aI179597
aa(lp898
V13
p899
aV11
p900
aI174568
aa(lp901
V13
p902
aV12
p903
aI167299
aa(lp904
V13
p905
aV13
p906
aI165083
aa(lp907
V13
p908
aV14
p909
aI166726
aa(lp910
V13
p911
aV15
p912
aI161393
aa(lp913
V13
p914
aV16
p915
aI159935
aa(lp916
V13
p917
aV17
p918
aI146873
aa(lp919
V13
p920
aV18
p921
aI128744
aa(lp922
V13
p923
aV19
p924
aI116774
aa(lp925
V13
p926
aV20
p927
aI107800
aa(lp928
V13
p929
aV21
p930
aI97114
aa(lp931
V13
p932
aV22
p933
aI85596
aa(lp934
V13
p935
aV23
p936
aI78479
aa(lp937
V14
p938
aV00
p939
aI73258
aa(lp940
V14
p941
aV01
p942
aI72708
aa(lp943
V14
p944
aV02
p945
aI74791
aa(lp946
V14
p947
aV03
p948
aI90584
aa(lp949
V14
p950
aV04
p951
aI134010
aa(lp952
V14
p953
aV05
p954
aI162489
aa(lp955
V14
p956
aV06
p957
aI172440
aa(lp958
V14
p959
aV07
p960
aI176009
aa(lp961
V14
p962
aV08
p963
aI171996
aa(lp964
V14
p965
aV09
p966
aI172153
aa(lp967
V14
p968
aV10
p969
aI174258
aa(lp970
V14
p971
aV11
p972
aI166577
aa(lp973
V14
p974
aV12
p975
aI160554
aa(lp976
V14
p977
aV13
p978
aI158611
aa(lp979
V14
p980
aV14
p981
aI160699
aa(lp982
V14
p983
aV15
p984
aI162218
aa(lp985
V14
p986
aV16
p987
aI159577
aa(lp988
V14
p989
aV17
p990
aI147493
aa(lp991
V14
p992
aV18
p993
aI129525
aa(lp994
V14
p995
aV19
p996
aI115805
aa(lp997
V14
p998
aV20
p999
aI106670
aa(lp1000
V14
p1001
aV21
p1002
aI97757
aa(lp1003
V14
p1004
aV22
p1005
aI90763
aa(lp1006
V14
p1007
aV23
p1008
aI84040
aa(lp1009
V15
p1010
aV00
p1011
aI80636
aa(lp1012
V15
p1013
aV01
p1014
aI78442
aa(lp1015
V15
p1016
aV02
p1017
aI81014
aa(lp1018
V15
p1019
aV03
p1020
aI92455
aa(lp1021
V15
p1022
aV04
p1023
aI131768
aa(lp1024
V15
p1025
aV05
p1026
aI166003
aa(lp1027
V15
p1028
aV06
p1029
aI177226
aa(lp1030
V15
p1031
aV07
p1032
aI177055
aa(lp1033
V15
p1034
aV08
p1035
aI172891
aa(lp1036
V15
p1037
aV09
p1038
aI171049
aa(lp1039
V15
p1040
aV10
p1041
aI172327
aa(lp1042
V15
p1043
aV11
p1044
aI165391
aa(lp1045
V15
p1046
aV12
p1047
aI156998
aa(lp1048
V15
p1049
aV13
p1050
aI152941
aa(lp1051
V15
p1052
aV14
p1053
aI153707
aa(lp1054
V15
p1055
aV15
p1056
aI154360
aa(lp1057
V15
p1058
aV16
p1059
aI153179
aa(lp1060
V15
p1061
aV17
p1062
aI141889
aa(lp1063
V15
p1064
aV18
p1065
aI126449
aa(lp1066
V15
p1067
aV19
p1068
aI112331
aa(lp1069
V15
p1070
aV20
p1071
aI103144
aa(lp1072
V15
p1073
aV21
p1074
aI95379
aa(lp1075
V15
p1076
aV22
p1077
aI85915
aa(lp1078
V15
p1079
aV23
p1080
aI78687
aa(lp1081
V16
p1082
aV00
p1083
aI74558
aa(lp1084
V16
p1085
aV01
p1086
aI72771
aa(lp1087
V16
p1088
aV02
p1089
aI73177
aa(lp1090
V16
p1091
aV03
p1092
aI76323
aa(lp1093
V16
p1094
aV04
p1095
aI90589
aa(lp1096
V16
p1097
aV05
p1098
aI123586
aa(lp1099
V16
p1100
aV06
p1101
aI166610
aa(lp1102
V16
p1103
aV07
p1104
aI190010
aa(lp1105
V16
p1106
aV08
p1107
aI188914
aa(lp1108
V16
p1109
aV09
p1110
aI182021
aa(lp1111
V16
p1112
aV10
p1113
aI178150
aa(lp1114
V16
p1115
aV11
p1116
aI165838
aa(lp1117
V16
p1118
aV12
p1119
aI154049
aa(lp1120
V16
p1121
aV13
p1122
aI149845
aa(lp1123
V16
p1124
aV14
p1125
aI146683
aa(lp1126
V16
p1127
aV15
p1128
aI146462
aa(lp1129
V16
p1130
aV16
p1131
aI145511
aa(lp1132
V16
p1133
aV17
p1134
aI137823
aa(lp1135
V16
p1136
aV18
p1137
aI124471
aa(lp1138
V16
p1139
aV19
p1140
aI115759
aa(lp1141
V16
p1142
aV20
p1143
aI103645
aa(lp1144
V16
p1145
aV21
p1146
aI95306
aa(lp1147
V16
p1148
aV22
p1149
aI86626
aa(lp1150
V16
p1151
aV23
p1152
aI79883
aa(lp1153
V17
p1154
aV00
p1155
aI75422
aa(lp1156
V17
p1157
aV01
p1158
aI71699
aa(lp1159
V17
p1160
aV02
p1161
aI72047
aa(lp1162
V17
p1163
aV03
p1164
aI73848
aa(lp1165
V17
p1166
aV04
p1167
aI81064
aa(lp1168
V17
p1169
aV05
p1170
aI102511
aa(lp1171
V17
p1172
aV06
p1173
aI140881
aa(lp1174
V17
p1175
aV07
p1176
aI172180
aa(lp1177
V17
p1178
aV08
p1179
aI179632
aa(lp1180
V17
p1181
aV09
p1182
aI176538
aa(lp1183
V17
p1184
aV10
p1185
aI168691
aa(lp1186
V17
p1187
aV11
p1188
aI153293
aa(lp1189
V17
p1190
aV12
p1191
aI141530
aa(lp1192
V17
p1193
aV13
p1194
aI134871
aa(lp1195
V17
p1196
aV14
p1197
aI131619
aa(lp1198
V17
p1199
aV15
p1200
aI132295
aa(lp1201
V17
p1202
aV16
p1203
aI137537
aa(lp1204
V17
p1205
aV17
p1206
aI130662
aa(lp1207
V17
p1208
aV18
p1209
aI116926
aa(lp1210
V17
p1211
aV19
p1212
aI103867
aa(lp1213
V17
p1214
aV20
p1215
aI95323
aa(lp1216
V17
p1217
aV21
p1218
aI87170
aa(lp1219
V17
p1220
aV22
p1221
aI78164
aa(lp1222
V17
p1223
aV23
p1224
aI71382
aa(lp1225
V18
p1226
aV00
p1227
aI67250
aa(lp1228
V18
p1229
aV01
p1230
aI68618
aa(lp1231
V18
p1232
aV02
p1233
aI71490
aa(lp1234
V18
p1235
aV03
p1236
aI85897
aa(lp1237
V18
p1238
aV04
p1239
aI125735
aa(lp1240
V18
p1241
aV05
p1242
aI155129
aa(lp1243
V18
p1244
aV06
p1245
aI163512
aa(lp1246
V18
p1247
aV07
p1248
aI162002
aa(lp1249
V18
p1250
aV08
p1251
aI160527
aa(lp1252
V18
p1253
aV09
p1254
aI161266
aa(lp1255
V18
p1256
aV10
p1257
aI164131
aa(lp1258
V18
p1259
aV11
p1260
aI156224
aa(lp1261
V18
p1262
aV12
p1263
aI148852
aa(lp1264
V18
p1265
aV13
p1266
aI146166
aa(lp1267
V18
p1268
aV14
p1269
aI147875
aa(lp1270
V18
p1271
aV15
p1272
aI149578
aa(lp1273
V18
p1274
aV16
p1275
aI151699
aa(lp1276
V18
p1277
aV17
p1278
aI144358
aa(lp1279
V18
p1280
aV18
p1281
aI129160
aa(lp1282
V18
p1283
aV19
p1284
aI116899
aa(lp1285
V18
p1286
aV20
p1287
aI105197
aa(lp1288
V18
p1289
aV21
p1290
aI96107
aa(lp1291
V18
p1292
aV22
p1293
aI86223
aa(lp1294
V18
p1295
aV23
p1296
aI78464
aa(lp1297
V19
p1298
aV00
p1299
aI73007
aa(lp1300
V19
p1301
aV01
p1302
aI71999
aa(lp1303
V19
p1304
aV02
p1305
aI75093
aa(lp1306
V19
p1307
aV03
p1308
aI89563
aa(lp1309
V19
p1310
aV04
p1311
aI129113
aa(lp1312
V19
p1313
aV05
p1314
aI159231
aa(lp1315
V19
p1316
aV06
p1317
aI165732
aa(lp1318
V19
p1319
aV07
p1320
aI162325
aa(lp1321
V19
p1322
aV08
p1323
aI158434
aa(lp1324
V19
p1325
aV09
p1326
aI160322
aa(lp1327
V19
p1328
aV10
p1329
aI162988
aa(lp1330
V19
p1331
aV11
p1332
aI156994
aa(lp1333
V19
p1334
aV12
p1335
aI150561
aa(lp1336
V19
p1337
aV13
p1338
aI149865
aa(lp1339
V19
p1340
aV14
p1341
aI150171
aa(lp1342
V19
p1343
aV15
p1344
aI154760
aa(lp1345
V19
p1346
aV16
p1347
aI154676
aa(lp1348
V19
p1349
aV17
p1350
aI143118
aa(lp1351
V19
p1352
aV18
p1353
aI129503
aa(lp1354
V19
p1355
aV19
p1356
aI117694
aa(lp1357
V19
p1358
aV20
p1359
aI106292
aa(lp1360
V19
p1361
aV21
p1362
aI98184
aa(lp1363
V19
p1364
aV22
p1365
aI88400
aa(lp1366
V19
p1367
aV23
p1368
aI80523
aa(lp1369
V20
p1370
aV00
p1371
aI76801
aa(lp1372
V20
p1373
aV01
p1374
aI76242
aa(lp1375
V20
p1376
aV02
p1377
aI79954
aa(lp1378
V20
p1379
aV03
p1380
aI86966
aa(lp1381
V20
p1382
aV04
p1383
aI129214
aa(lp1384
V20
p1385
aV05
p1386
aI161248
aa(lp1387
V20
p1388
aV06
p1389
aI168201
aa(lp1390
V20
p1391
aV07
p1392
aI163016
aa(lp1393
V20
p1394
aV08
p1395
aI157182
aa(lp1396
V20
p1397
aV09
p1398
aI158987
aa(lp1399
V20
p1400
aV10
p1401
aI161924
aa(lp1402
V20
p1403
aV11
p1404
aI157121
aa(lp1405
V20
p1406
aV12
p1407
aI154201
aa(lp1408
V20
p1409
aV13
p1410
aI150241
aa(lp1411
V20
p1412
aV14
p1413
aI152174
aa(lp1414
V20
p1415
aV15
p1416
aI156834
aa(lp1417
V20
p1418
aV16
p1419
aI156428
aa(lp1420
V20
p1421
aV17
p1422
aI142949
aa(lp1423
V20
p1424
aV18
p1425
aI128845
aa(lp1426
V20
p1427
aV19
p1428
aI115788
aa(lp1429
V20
p1430
aV20
p1431
aI106467
aa(lp1432
V20
p1433
aV21
p1434
aI95968
aa(lp1435
V20
p1436
aV22
p1437
aI83230
aa(lp1438
V20
p1439
aV23
p1440
aI75595
aa(lp1441
V21
p1442
aV00
p1443
aI71710
aa(lp1444
V21
p1445
aV01
p1446
aI69749
aa(lp1447
V21
p1448
aV02
p1449
aI69300
aa(lp1450
V21
p1451
aV03
p1452
aI84114
aa(lp1453
V21
p1454
aV04
p1455
aI123520
aa(lp1456
V21
p1457
aV05
p1458
aI153533
aa(lp1459
V21
p1460
aV06
p1461
aI159552
aa(lp1462
V21
p1463
aV07
p1464
aI159965
aa(lp1465
V21
p1466
aV08
p1467
aI160678
aa(lp1468
V21
p1469
aV09
p1470
aI157476
aa(lp1471
V21
p1472
aV10
p1473
aI160681
aa(lp1474
V21
p1475
aV11
p1476
aI158041
aa(lp1477
V21
p1478
aV12
p1479
aI151460
aa(lp1480
V21
p1481
aV13
p1482
aI146917
aa(lp1483
V21
p1484
aV14
p1485
aI149053
aa(lp1486
V21
p1487
aV15
p1488
aI150046
aa(lp1489
V21
p1490
aV16
p1491
aI150297
aa(lp1492
V21
p1493
aV17
p1494
aI140899
aa(lp1495
V21
p1496
aV18
p1497
aI124973
aa(lp1498
V21
p1499
aV19
p1500
aI113891
aa(lp1501
V21
p1502
aV20
p1503
aI101686
aa(lp1504
V21
p1505
aV21
p1506
aI88426
aa(lp1507
V21
p1508
aV22
p1509
aI78773
aa(lp1510
V21
p1511
aV23
p1512
aI73786
aa(lp1513
V22
p1514
aV00
p1515
aI69975
aa(lp1516
V22
p1517
aV01
p1518
aI69294
aa(lp1519
V22
p1520
aV02
p1521
aI70434
aa(lp1522
V22
p1523
aV03
p1524
aI82138
aa(lp1525
V22
p1526
aV04
p1527
aI120558
aa(lp1528
V22
p1529
aV05
p1530
aI152913
aa(lp1531
V22
p1532
aV06
p1533
aI165155
aa(lp1534
V22
p1535
aV07
p1536
aI168095
aa(lp1537
V22
p1538
aV08
p1539
aI166955
aa(lp1540
V22
p1541
aV09
p1542
aI168425
aa(lp1543
V22
p1544
aV10
p1545
aI170992
aa(lp1546
V22
p1547
aV11
p1548
aI168916
aa(lp1549
V22
p1550
aV12
p1551
aI164643
aa(lp1552
V22
p1553
aV13
p1554
aI161146
aa(lp1555
V22
p1556
aV14
p1557
aI160359
aa(lp1558
V22
p1559
aV15
p1560
aI161069
aa(lp1561
V22
p1562
aV16
p1563
aI162103
aa(lp1564
V22
p1565
aV17
p1566
aI145769
aa(lp1567
V22
p1568
aV18
p1569
aI125886
aa(lp1570
V22
p1571
aV19
p1572
aI111347
aa(lp1573
V22
p1574
aV20
p1575
aI100058
aa(lp1576
V22
p1577
aV21
p1578
aI93201
aa(lp1579
V22
p1580
aV22
p1581
aI81194
aa(lp1582
V22
p1583
aV23
p1584
aI73121
aa(lp1585
V23
p1586
aV00
p1587
aI68496
aa(lp1588
V23
p1589
aV01
p1590
aI66321
aa(lp1591
V23
p1592
aV02
p1593
aI66647
aa(lp1594
V23
p1595
aV03
p1596
aI71479
aa(lp1597
V23
p1598
aV04
p1599
aI85213
aa(lp1600
V23
p1601
aV05
p1602
aI115894
aa(lp1603
V23
p1604
aV06
p1605
aI156462
aa(lp1606
V23
p1607
aV07
p1608
aI180534
aa(lp1609
V23
p1610
aV08
p1611
aI180553
aa(lp1612
V23
p1613
aV09
p1614
aI175796
aa(lp1615
V23
p1616
aV10
p1617
aI169811
aa(lp1618
V23
p1619
aV11
p1620
aI159013
aa(lp1621
V23
p1622
aV12
p1623
aI149737
aa(lp1624
V23
p1625
aV13
p1626
aI143049
aa(lp1627
V23
p1628
aV14
p1629
aI142554
aa(lp1630
V23
p1631
aV15
p1632
aI145395
aa(lp1633
V23
p1634
aV16
p1635
aI148263
aa(lp1636
V23
p1637
aV17
p1638
aI140367
aa(lp1639
V23
p1640
aV18
p1641
aI121861
aa(lp1642
V23
p1643
aV19
p1644
aI107350
aa(lp1645
V23
p1646
aV20
p1647
aI98618
aa(lp1648
V23
p1649
aV21
p1650
aI89309
aa(lp1651
V23
p1652
aV22
p1653
aI79190
aa(lp1654
V23
p1655
aV23
p1656
aI71216
aa(lp1657
V24
p1658
aV00
p1659
aI65850
aa(lp1660
V24
p1661
aV01
p1662
aI62870
aa(lp1663
V24
p1664
aV02
p1665
aI61891
aa(lp1666
V24
p1667
aV03
p1668
aI63073
aa(lp1669
V24
p1670
aV04
p1671
aI69250
aa(lp1672
V24
p1673
aV05
p1674
aI91678
aa(lp1675
V24
p1676
aV06
p1677
aI127153
aa(lp1678
V24
p1679
aV07
p1680
aI158450
aa(lp1681
V24
p1682
aV08
p1683
aI169426
aa(lp1684
V24
p1685
aV09
p1686
aI166893
aa(lp1687
V24
p1688
aV10
p1689
aI161032
aa(lp1690
V24
p1691
aV11
p1692
aI149221
aa(lp1693
V24
p1694
aV12
p1695
aI134915
aa(lp1696
V24
p1697
aV13
p1698
aI125425
aa(lp1699
V24
p1700
aV14
p1701
aI124609
aa(lp1702
V24
p1703
aV15
p1704
aI126408
aa(lp1705
V24
p1706
aV16
p1707
aI128839
aa(lp1708
V24
p1709
aV17
p1710
aI123749
aa(lp1711
V24
p1712
aV18
p1713
aI111014
aa(lp1714
V24
p1715
aV19
p1716
aI100620
aa(lp1717
V24
p1718
aV20
p1719
aI92044
aa(lp1720
V24
p1721
aV21
p1722
aI84118
aa(lp1723
V24
p1724
aV22
p1725
aI76326
aa(lp1726
V24
p1727
aV23
p1728
aI69733
aa(lp1729
V25
p1730
aV00
p1731
aI65933
aa(lp1732
V25
p1733
aV01
p1734
aI64580
aa(lp1735
V25
p1736
aV02
p1737
aI65207
aa(lp1738
V25
p1739
aV03
p1740
aI78325
aa(lp1741
V25
p1742
aV04
p1743
aI114064
aa(lp1744
V25
p1745
aV05
p1746
aI142254
aa(lp1747
V25
p1748
aV06
p1749
aI151758
aa(lp1750
V25
p1751
aV07
p1752
aI151561
aa(lp1753
V25
p1754
aV08
p1755
aI149853
aa(lp1756
V25
p1757
aV09
p1758
aI149920
aa(lp1759
V25
p1760
aV10
p1761
aI151556
aa(lp1762
V25
p1763
aV11
p1764
aI148260
aa(lp1765
V25
p1766
aV12
p1767
aI144735
aa(lp1768
V25
p1769
aV13
p1770
aI144281
aa(lp1771
V25
p1772
aV14
p1773
aI144859
aa(lp1774
V25
p1775
aV15
p1776
aI145363
aa(lp1777
V25
p1778
aV16
p1779
aI145996
aa(lp1780
V25
p1781
aV17
p1782
aI136856
aa(lp1783
V25
p1784
aV18
p1785
aI120434
aa(lp1786
V25
p1787
aV19
p1788
aI110131
aa(lp1789
V25
p1790
aV20
p1791
aI98555
aa(lp1792
V25
p1793
aV21
p1794
aI90673
aa(lp1795
V25
p1796
aV22
p1797
aI80778
aa(lp1798
V25
p1799
aV23
p1800
aI74850
aa(lp1801
V26
p1802
aV00
p1803
aI70715
aa(lp1804
V26
p1805
aV01
p1806
aI66945
aa(lp1807
V26
p1808
aV02
p1809
aI71418
aa(lp1810
V26
p1811
aV03
p1812
aI84945
aa(lp1813
V26
p1814
aV04
p1815
aI121073
aa(lp1816
V26
p1817
aV05
p1818
aI150353
aa(lp1819
V26
p1820
aV06
p1821
aI162059
aa(lp1822
V26
p1823
aV07
p1824
aI160431
aa(lp1825
V26
p1826
aV08
p1827
aI156075
aa(lp1828
V26
p1829
aV09
p1830
aI157336
aa(lp1831
V26
p1832
aV10
p1833
aI161369
aa(lp1834
V26
p1835
aV11
p1836
aI157434
aa(lp1837
V26
p1838
aV12
p1839
aI151381
aa(lp1840
V26
p1841
aV13
p1842
aI148528
aa(lp1843
V26
p1844
aV14
p1845
aI149858
aa(lp1846
V26
p1847
aV15
p1848
aI150279
aa(lp1849
V26
p1850
aV16
p1851
aI148132
aa(lp1852
V26
p1853
aV17
p1854
aI137920
aa(lp1855
V26
p1856
aV18
p1857
aI119025
aa(lp1858
V26
p1859
aV19
p1860
aI102690
aa(lp1861
V26
p1862
aV20
p1863
aI91425
aa(lp1864
V26
p1865
aV21
p1866
aI83802
aa(lp1867
V26
p1868
aV22
p1869
aI75612
aa(lp1870
V26
p1871
aV23
p1872
aI70961
aa(lp1873
V27
p1874
aV00
p1875
aI67559
aa(lp1876
V27
p1877
aV01
p1878
aI67534
aa(lp1879
V27
p1880
aV02
p1881
aI69570
aa(lp1882
V27
p1883
aV03
p1884
aI85691
aa(lp1885
V27
p1886
aV04
p1887
aI124006
aa(lp1888
V27
p1889
aV05
p1890
aI148695
aa(lp1891
V27
p1892
aV06
p1893
aI159298
aa(lp1894
V27
p1895
aV07
p1896
aI159227
aa(lp1897
V27
p1898
aV08
p1899
aI158406
aa(lp1900
V27
p1901
aV09
p1902
aI156741
aa(lp1903
V27
p1904
aV10
p1905
aI158104
aa(lp1906
V27
p1907
aV11
p1908
aI151550
aa(lp1909
V27
p1910
aV12
p1911
aI144635
aa(lp1912
V27
p1913
aV13
p1914
aI142089
aa(lp1915
V27
p1916
aV14
p1917
aI144774
aa(lp1918
V27
p1919
aV15
p1920
aI149627
aa(lp1921
V27
p1922
aV16
p1923
aI149851
aa(lp1924
V27
p1925
aV17
p1926
aI139601
aa(lp1927
V27
p1928
aV18
p1929
aI124356
aa(lp1930
V27
p1931
aV19
p1932
aI114326
aa(lp1933
V27
p1934
aV20
p1935
aI102429
aa(lp1936
V27
p1937
aV21
p1938
aI91488
aa(lp1939
V27
p1940
aV22
p1941
aI81357
aa(lp1942
V27
p1943
aV23
p1944
aI74531
aa(lp1945
V28
p1946
aV00
p1947
aI70392
aa(lp1948
V28
p1949
aV01
p1950
aI67243
aa(lp1951
V28
p1952
aV02
p1953
aI68888
aa(lp1954
V28
p1955
aV03
p1956
aI83796
aa(lp1957
V28
p1958
aV04
p1959
aI120533
aa(lp1960
V28
p1961
aV05
p1962
aI149941
aa(lp1963
V28
p1964
aV06
p1965
aI161219
aa(lp1966
V28
p1967
aV07
p1968
aI163806
aa(lp1969
V28
p1970
aV08
p1971
aI159717
aa(lp1972
V28
p1973
aV09
p1974
aI157686
aa(lp1975
V28
p1976
aV10
p1977
aI160301
aa(lp1978
V28
p1979
aV11
p1980
aI153540
aa(lp1981
V28
p1982
aV12
p1983
aI148585
aa(lp1984
V28
p1985
aV13
p1986
aI148851
aa(lp1987
V28
p1988
aV14
p1989
aI151195
aa(lp1990
V28
p1991
aV15
p1992
aI150422
aa(lp1993
V28
p1994
aV16
p1995
aI149304
aa(lp1996
V28
p1997
aV17
p1998
aI140336
aa(lp1999
V28
p2000
aV18
p2001
aI124610
aa(lp2002
V28
p2003
aV19
p2004
aI110270
aa(lp2005
V28
p2006
aV20
p2007
aI100643
aa(lp2008
V28
p2009
aV21
p2010
aI90914
aa(lp2011
V28
p2012
aV22
p2013
aI81871
aa(lp2014
V28
p2015
aV23
p2016
aI74154
aa(lp2017
V29
p2018
aV00
p2019
aI70523
aa(lp2020
V29
p2021
aV01
p2022
aI70634
aa(lp2023
V29
p2024
aV02
p2025
aI76115
aa(lp2026
V29
p2027
aV03
p2028
aI85846
aa(lp2029
V29
p2030
aV04
p2031
aI116819
aa(lp2032
V29
p2033
aV05
p2034
aI148778
aa(lp2035
V29
p2036
aV06
p2037
aI166834
aa(lp2038
V29
p2039
aV07
p2040
aI164096
aa(lp2041
V29
p2042
aV08
p2043
aI161199
aa(lp2044
V29
p2045
aV09
p2046
aI161515
aa(lp2047
V29
p2048
aV10
p2049
aI163485
aa(lp2050
V29
p2051
aV11
p2052
aI159114
aa(lp2053
V29
p2054
aV12
p2055
aI151465
aa(lp2056
V29
p2057
aV13
p2058
aI146134
aa(lp2059
V29
p2060
aV14
p2061
aI145389
aa(lp2062
V29
p2063
aV15
p2064
aI147062
aa(lp2065
V29
p2066
aV16
p2067
aI144655
aa(lp2068
V29
p2069
aV17
p2070
aI135834
aa(lp2071
V29
p2072
aV18
p2073
aI120877
aa(lp2074
V29
p2075
aV19
p2076
aI106867
aa(lp2077
V29
p2078
aV20
p2079
aI97986
aa(lp2080
V29
p2081
aV21
p2082
aI89867
aa(lp2083
V29
p2084
aV22
p2085
aI81204
aa(lp2086
V29
p2087
aV23
p2088
aI74532
aa(lp2089
V30
p2090
aV00
p2091
aI71192
aa(lp2092
V30
p2093
aV01
p2094
aI66250
aa(lp2095
V30
p2096
aV02
p2097
aI64809
aa(lp2098
V30
p2099
aV03
p2100
aI68318
aa(lp2101
V30
p2102
aV04
p2103
aI80131
aa(lp2104
V30
p2105
aV05
p2106
aI110788
aa(lp2107
V30
p2108
aV06
p2109
aI148701
aa(lp2110
V30
p2111
aV07
p2112
aI171469
aa(lp2113
V30
p2114
aV08
p2115
aI170959
aa(lp2116
V30
p2117
aV09
p2118
aI164526
aa(lp2119
V30
p2120
aV10
p2121
aI160476
aa(lp2122
V30
p2123
aV11
p2124
aI150419
aa(lp2125
V30
p2126
aV12
p2127
aI140273
aa(lp2128
V30
p2129
aV13
p2130
aI138343
aa(lp2131
V30
p2132
aV14
p2133
aI137390
aa(lp2134
V30
p2135
aV15
p2136
aI138736
aa(lp2137
V30
p2138
aV16
p2139
aI137027
aa(lp2140
V30
p2141
aV17
p2142
aI130650
aa(lp2143
V30
p2144
aV18
p2145
aI117647
aa(lp2146
V30
p2147
aV19
p2148
aI106160
aa(lp2149
V30
p2150
aV20
p2151
aI95862
aa(lp2152
V30
p2153
aV21
p2154
aI89196
aa(lp2155
V30
p2156
aV22
p2157
aI79081
aa(lp2158
V30
p2159
aV23
p2160
aI71319
aa(lp2161
V31
p2162
aV00
p2163
aI66404
aa(lp2164
V31
p2165
aV01
p2166
aI63863
aa(lp2167
V31
p2168
aV02
p2169
aI60603
aa(lp2170
V31
p2171
aV03
p2172
aI61771
aa(lp2173
V31
p2174
aV04
p2175
aI68174
aa(lp2176
V31
p2177
aV05
p2178
aI88324
aa(lp2179
V31
p2180
aV06
p2181
aI126208
aa(lp2182
V31
p2183
aV07
p2184
aI157308
aa(lp2185
V31
p2186
aV08
p2187
aI169551
aa(lp2188
V31
p2189
aV09
p2190
aI170012
aa(lp2191
V31
p2192
aV10
p2193
aI162615
aa(lp2194
V31
p2195
aV11
p2196
aI147812
aa(lp2197
V31
p2198
aV12
p2199
aI133666
aa(lp2200
V31
p2201
aV13
p2202
aI125708
aa(lp2203
V31
p2204
aV14
p2205
aI122875
aa(lp2206
V31
p2207
aV15
p2208
aI126770
aa(lp2209
V31
p2210
aV16
p2211
aI128512
aa(lp2212
V31
p2213
aV17
p2214
aI120842
aa(lp2215
V31
p2216
aV18
p2217
aI103968
aa(lp2218
V31
p2219
aV19
p2220
aI92248
aa(lp2221
V31
p2222
aV20
p2223
aI87281
aa(lp2224
V31
p2225
aV21
p2226
aI78802
aa(lp2227
V31
p2228
aV22
p2229
aI72258
aa(lp2230
V31
p2231
aV23
p2232
aI65002
aa.