(lp0
(lp1
V01
p2
aV00
p3
aI78197
aa(lp4
V01
p5
aV01
p6
aI74417
aa(lp7
V01
p8
aV02
p9
aI67020
aa(lp10
V01
p11
aV03
p12
aI69914
aa(lp13
V01
p14
aV04
p15
aI82125
aa(lp16
V01
p17
aV05
p18
aI116341
aa(lp19
V01
p20
aV06
p21
aI168200
aa(lp22
V01
p23
aV07
p24
aI196117
aa(lp25
V01
p26
aV08
p27
aI194707
aa(lp28
V01
p29
aV09
p30
aI185083
aa(lp31
V01
p32
aV10
p33
aI180264
aa(lp34
V01
p35
aV11
p36
aI167692
aa(lp37
V01
p38
aV12
p39
aI160675
aa(lp40
V01
p41
aV13
p42
aI155068
aa(lp43
V01
p44
aV14
p45
aI153014
aa(lp46
V01
p47
aV15
p48
aI153224
aa(lp49
V01
p50
aV16
p51
aI150058
aa(lp52
V01
p53
aV17
p54
aI138920
aa(lp55
V01
p56
aV18
p57
aI117322
aa(lp58
V01
p59
aV19
p60
aI102365
aa(lp61
V01
p62
aV20
p63
aI95266
aa(lp64
V01
p65
aV21
p66
aI89383
aa(lp67
V01
p68
aV22
p69
aI82479
aa(lp70
V01
p71
aV23
p72
aI74592
aa(lp73
V02
p74
aV00
p75
aI68524
aa(lp76
V02
p77
aV01
p78
aI66534
aa(lp79
V02
p80
aV02
p81
aI66711
aa(lp82
V02
p83
aV03
p84
aI67945
aa(lp85
V02
p86
aV04
p87
aI76234
aa(lp88
V02
p89
aV05
p90
aI99540
aa(lp91
V02
p92
aV06
p93
aI145065
aa(lp94
V02
p95
aV07
p96
aI178072
aa(lp97
V02
p98
aV08
p99
aI181634
aa(lp100
V02
p101
aV09
p102
aI178690
aa(lp103
V02
p104
aV10
p105
aI170340
aa(lp106
V02
p107
aV11
p108
aI152524
aa(lp109
V02
p110
aV12
p111
aI138889
aa(lp112
V02
p113
aV13
p114
aI131933
aa(lp115
V02
p116
aV14
p117
aI130881
aa(lp118
V02
p119
aV15
p120
aI132961
aa(lp121
V02
p122
aV16
p123
aI133138
aa(lp124
V02
p125
aV17
p126
aI121563
aa(lp127
V02
p128
aV18
p129
aI101212
aa(lp130
V02
p131
aV19
p132
aI87359
aa(lp133
V02
p134
aV20
p135
aI82604
aa(lp136
V02
p137
aV21
p138
aI79205
aa(lp139
V02
p140
aV22
p141
aI71680
aa(lp142
V02
p143
aV23
p144
aI65126
aa(lp145
V03
p146
aV00
p147
aI61748
aa(lp148
V03
p149
aV01
p150
aI61066
aa(lp151
V03
p152
aV02
p153
aI62359
aa(lp154
V03
p155
aV03
p156
aI71154
aa(lp157
V03
p158
aV04
p159
aI99842
aa(lp160
V03
p161
aV05
p162
aI134052
aa(lp163
V03
p164
aV06
p165
aI163368
aa(lp166
V03
p167
aV07
p168
aI184594
aa(lp169
V03
p170
aV08
p171
aI188042
aa(lp172
V03
p173
aV09
p174
aI187415
aa(lp175
V03
p176
aV10
p177
aI182858
aa(lp178
V03
p179
aV11
p180
aI166471
aa(lp181
V03
p182
aV12
p183
aI153931
aa(lp184
V03
p185
aV13
p186
aI149968
aa(lp187
V03
p188
aV14
p189
aI150396
aa(lp190
V03
p191
aV15
p192
aI152323
aa(lp193
V03
p194
aV16
p195
aI152882
aa(lp196
V03
p197
aV17
p198
aI139247
aa(lp199
V03
p200
aV18
p201
aI115338
aa(lp202
V03
p203
aV19
p204
aI100382
aa(lp205
V03
p206
aV20
p207
aI93737
aa(lp208
V03
p209
aV21
p210
aI86124
aa(lp211
V03
p212
aV22
p213
aI77580
aa(lp214
V03
p215
aV23
p216
aI70435
aa(lp217
V04
p218
aV00
p219
aI66290
aa(lp220
V04
p221
aV01
p222
aI64894
aa(lp223
V04
p224
aV02
p225
aI69248
aa(lp226
V04
p227
aV03
p228
aI87360
aa(lp229
V04
p230
aV04
p231
aI138346
aa(lp232
V04
p233
aV05
p234
aI174017
aa(lp235
V04
p236
aV06
p237
aI176944
aa(lp238
V04
p239
aV07
p240
aI169448
aa(lp241
V04
p242
aV08
p243
aI163315
aa(lp244
V04
p245
aV09
p246
aI161757
aa(lp247
V04
p248
aV10
p249
aI165251
aa(lp250
V04
p251
aV11
p252
aI158967
aa(lp253
V04
p254
aV12
p255
aI152548
aa(lp256
V04
p257
aV13
p258
aI154573
aa(lp259
V04
p260
aV14
p261
aI153857
aa(lp262
V04
p263
aV15
p264
aI156602
aa(lp265
V04
p266
aV16
p267
aI158388
aa(lp268
V04
p269
aV17
p270
aI142503
aa(lp271
V04
p272
aV18
p273
aI120064
aa(lp274
V04
p275
aV19
p276
aI104133
aa(lp277
V04
p278
aV20
p279
aI96619
aa(lp280
V04
p281
aV21
p282
aI90122
aa(lp283
V04
p284
aV22
p285
aI81887
aa(lp286
V04
p287
aV23
p288
aI74753
aa(lp289
V05
p290
aV00
p291
aI68845
aa(lp292
V05
p293
aV01
p294
aI66628
aa(lp295
V05
p296
aV02
p297
aI68275
aa(lp298
V05
p299
aV03
p300
aI85491
aa(lp301
V05
p302
aV04
p303
aI135760
aa(lp304
V05
p305
aV05
p306
aI170688
aa(lp307
V05
p308
aV06
p309
aI172854
aa(lp310
V05
p311
aV07
p312
aI167710
aa(lp313
V05
p314
aV08
p315
aI161366
aa(lp316
V05
p317
aV09
p318
aI162264
aa(lp319
V05
p320
aV10
p321
aI167194
aa(lp322
V05
p323
aV11
p324
aI162444
aa(lp325
V05
p326
aV12
p327
aI155597
aa(lp328
V05
p329
aV13
p330
aI154463
aa(lp331
V05
p332
aV14
p333
aI157137
aa(lp334
V05
p335
aV15
p336
aI160331
aa(lp337
V05
p338
aV16
p339
aI159582
aa(lp340
V05
p341
aV17
p342
aI143489
aa(lp343
V05
p344
aV18
p345
aI118202
aa(lp346
V05
p347
aV19
p348
aI102950
aa(lp349
V05
p350
aV20
p351
aI96081
aa(lp352
V05
p353
aV21
p354
aI85632
aa(lp355
V05
p356
aV22
p357
aI78459
aa(lp358
V05
p359
aV23
p360
aI71774
aa(lp361
V06
p362
aV00
p363
aI67885
aa(lp364
V06
p365
aV01
p366
aI67067
aa(lp367
V06
p368
aV02
p369
aI69138
aa(lp370
V06
p371
aV03
p372
aI85635
aa(lp373
V06
p374
aV04
p375
aI137854
aa(lp376
V06
p377
aV05
p378
aI173246
aa(lp379
V06
p380
aV06
p381
aI175970
aa(lp382
V06
p383
aV07
p384
aI172820
aa(lp385
V06
p386
aV08
p387
aI167798
aa(lp388
V06
p389
aV09
p390
aI168030
aa(lp391
V06
p392
aV10
p393
aI170248
aa(lp394
V06
p395
aV11
p396
aI163411
aa(lp397
V06
p398
aV12
p399
aI143821
aa(lp400
V06
p401
aV13
p402
aI143746
aa(lp403
V06
p404
aV14
p405
aI147855
aa(lp406
V06
p407
aV15
p408
aI153989
aa(lp409
V06
p410
aV16
p411
aI155933
aa(lp412
V06
p413
aV17
p414
aI138586
aa(lp415
V06
p416
aV18
p417
aI115636
aa(lp418
V06
p419
aV19
p420
aI99107
aa(lp421
V06
p422
aV20
p423
aI90637
aa(lp424
V06
p425
aV21
p426
aI84313
aa(lp427
V06
p428
aV22
p429
aI76413
aa(lp430
V06
p431
aV23
p432
aI69095
aa(lp433
V07
p434
aV00
p435
aI62894
aa(lp436
V07
p437
aV01
p438
aI62541
aa(lp439
V07
p440
aV02
p441
aI65396
aa(lp442
V07
p443
aV03
p444
aI83063
aa(lp445
V07
p446
aV04
p447
aI131961
aa(lp448
V07
p449
aV05
p450
aI168271
aa(lp451
V07
p452
aV06
p453
aI174770
aa(lp454
V07
p455
aV07
p456
aI174805
aa(lp457
V07
p458
aV08
p459
aI168763
aa(lp460
V07
p461
aV09
p462
aI169403
aa(lp463
V07
p464
aV10
p465
aI171650
aa(lp466
V07
p467
aV11
p468
aI167427
aa(lp469
V07
p470
aV12
p471
aI162001
aa(lp472
V07
p473
aV13
p474
aI158799
aa(lp475
V07
p476
aV14
p477
aI160922
aa(lp478
V07
p479
aV15
p480
aI164011
aa(lp481
V07
p482
aV16
p483
aI159408
aa(lp484
V07
p485
aV17
p486
aI141188
aa(lp487
V07
p488
aV18
p489
aI114771
aa(lp490
V07
p491
aV19
p492
aI99834
aa(lp493
V07
p494
aV20
p495
aI92815
aa(lp496
V07
p497
aV21
p498
aI86973
aa(lp499
V07
p500
aV22
p501
aI78697
aa(lp502
V07
p503
aV23
p504
aI71443
aa(lp505
V08
p506
aV00
p507
aI66613
aa(lp508
V08
p509
aV01
p510
aI64941
aa(lp511
V08
p512
aV02
p513
aI64458
aa(lp514
V08
p515
aV03
p516
aI68207
aa(lp517
V08
p518
aV04
p519
aI81154
aa(lp520
V08
p521
aV05
p522
aI113717
aa(lp523
V08
p524
aV06
p525
aI162341
aa(lp526
V08
p527
aV07
p528
aI193840
aa(lp529
V08
p530
aV08
p531
aI195100
aa(lp532
V08
p533
aV09
p534
aI189847
aa(lp535
V08
p536
aV10
p537
aI183442
aa(lp538
V08
p539
aV11
p540
aI169255
aa(lp541
V08
p542
aV12
p543
aI159563
aa(lp544
V08
p545
aV13
p546
aI151161
aa(lp547
V08
p548
aV14
p549
aI151233
aa(lp550
V08
p551
aV15
p552
aI153035
aa(lp553
V08
p554
aV16
p555
aI150677
aa(lp556
V08
p557
aV17
p558
aI137690
aa(lp559
V08
p560
aV18
p561
aI114852
aa(lp562
V08
p563
aV19
p564
aI101628
aa(lp565
V08
p566
aV20
p567
aI95591
aa(lp568
V08
p569
aV21
p570
aI90133
aa(lp571
V08
p572
aV22
p573
aI82970
aa(lp574
V08
p575
aV23
p576
aI74234
aa(lp577
V09
p578
aV00
p579
aI69970
aa(lp580
V09
p581
aV01
p582
aI65371
aa(lp583
V09
p584
aV02
p585
aI64736
aa(lp586
V09
p587
aV03
p588
aI66924
aa(lp589
V09
p590
aV04
p591
aI74145
aa(lp592
V09
p593
aV05
p594
aI93736
aa(lp595
V09
p596
aV06
p597
aI138799
aa(lp598
V09
p599
aV07
p600
aI179766
aa(lp601
V09
p602
aV08
p603
aI189657
aa(lp604
V09
p605
aV09
p606
aI186564
aa(lp607
V09
p608
aV10
p609
aI176519
aa(lp610
V09
p611
aV11
p612
aI158254
aa(lp613
V09
p614
aV12
p615
aI143773
aa(lp616
V09
p617
aV13
p618
aI134699
aa(lp619
V09
p620
aV14
p621
aI134186
aa(lp622
V09
p623
aV15
p624
aI136774
aa(lp625
V09
p626
aV16
p627
aI137759
aa(lp628
V09
p629
aV17
p630
aI126464
aa(lp631
V09
p632
aV18
p633
aI102261
aa(lp634
V09
p635
aV19
p636
aI88586
aa(lp637
V09
p638
aV20
p639
aI83917
aa(lp640
V09
p641
aV21
p642
aI79821
aa(lp643
V09
p644
aV22
p645
aI72694
aa(lp646
V09
p647
aV23
p648
aI65888
aa(lp649
V10
p650
aV00
p651
aI60875
aa(lp652
V10
p653
aV01
p654
aI59338
aa(lp655
V10
p656
aV02
p657
aI63669
aa(lp658
V10
p659
aV03
p660
aI82690
aa(lp661
V10
p662
aV04
p663
aI134904
aa(lp664
V10
p665
aV05
p666
aI172459
aa(lp667
V10
p668
aV06
p669
aI171722
aa(lp670
V10
p671
aV07
p672
aI166799
aa(lp673
V10
p674
aV08
p675
aI160779
aa(lp676
V10
p677
aV09
p678
aI161497
aa(lp679
V10
p680
aV10
p681
aI164752
aa(lp682
V10
p683
aV11
p684
aI157414
aa(lp685
V10
p686
aV12
p687
aI153906
aa(lp688
V10
p689
aV13
p690
aI152227
aa(lp691
V10
p692
aV14
p693
aI156506
aa(lp694
V10
p695
aV15
p696
aI160839
aa(lp697
V10
p698
aV16
p699
aI158877
aa(lp700
V10
p701
aV17
p702
aI141643
aa(lp703
V10
p704
aV18
p705
aI116213
aa(lp706
V10
p707
aV19
p708
aI99595
aa(lp709
V10
p710
aV20
p711
aI91914
aa(lp712
V10
p713
aV21
p714
aI84447
aa(lp715
V10
p716
aV22
p717
aI75599
aa(lp718
V10
p719
aV23
p720
aI68720
aa(lp721
V11
p722
aV00
p723
aI64137
aa(lp724
V11
p725
aV01
p726
aI62630
aa(lp727
V11
p728
aV02
p729
aI65486
aa(lp730
V11
p731
aV03
p732
aI83296
aa(lp733
V11
p734
aV04
p735
aI132892
aa(lp736
V11
p737
aV05
p738
aI167254
aa(lp739
V11
p740
aV06
p741
aI173085
aa(lp742
V11
p743
aV07
p744
aI170068
aa(lp745
V11
p746
aV08
p747
aI162233
aa(lp748
V11
p749
aV09
p750
aI163830
aa(lp751
V11
p752
aV10
p753
aI167545
aa(lp754
V11
p755
aV11
p756
aI159487
aa(lp757
V11
p758
aV12
p759
aI153001
aa(lp760
V11
p761
aV13
p762
aI151684
aa(lp763
V11
p764
aV14
p765
aI155981
aa(lp766
V11
p767
aV15
p768
aI160355
aa(lp769
V11
p770
aV16
p771
aI158321
aa(lp772
V11
p773
aV17
p774
aI142267
aa(lp775
V11
p776
aV18
p777
aI116668
aa(lp778
V11
p779
aV19
p780
aI100819
aa(lp781
V11
p782
aV20
p783
aI93711
aa(lp784
V11
p785
aV21
p786
aI87273
aa(lp787
V11
p788
aV22
p789
aI79247
aa(lp790
V11
p791
aV23
p792
aI73774
aa(lp793
V12
p794
aV00
p795
aI69251
aa(lp796
V12
p797
aV01
p798
aI68546
aa(lp799
V12
p800
aV02
p801
aI71001
aa(lp802
V12
p803
aV03
p804
aI87599
aa(lp805
V12
p806
aV04
p807
aI135026
aa(lp808
V12
p809
aV05
p810
aI170751
aa(lp811
V12
p812
aV06
p813
aI177475
aa(lp814
V12
p815
aV07
p816
aI178607
aa(lp817
V12
p818
aV08
p819
aI178328
aa(lp820
V12
p821
aV09
p822
aI182842
aa(lp823
V12
p824
aV10
p825
aI187008
aa(lp826
V12
p827
aV11
p828
aI180657
aa(lp829
V12
p830
aV12
p831
aI174589
aa(lp832
V12
p833
aV13
p834
aI175813
aa(lp835
V12
p836
aV14
p837
aI181842
aa(lp838
V12
p839
aV15
p840
aI188040
aa(lp841
V12
p842
aV16
p843
aI189060
aa(lp844
V12
p845
aV17
p846
aI173329
aa(lp847
V12
p848
aV18
p849
aI151329
aa(lp850
V12
p851
aV19
p852
aI139794
aa(lp853
V12
p854
aV20
p855
aI134576
aa(lp856
V12
p857
aV21
p858
aI129448
aa(lp859
V12
p860
aV22
p861
aI121881
aa(lp862
V12
p863
aV23
p864
aI118218
aa(lp865
V13
p866
aV00
p867
aI117307
aa(lp868
V13
p869
aV01
p870
aI119322
aa(lp871
V13
p872
aV02
p873
aI123323
aa(lp874
V13
p875
aV03
p876
aI142817
aa(lp877
V13
p878
aV04
p879
aI194032
aa(lp880
V13
p881
aV05
p882
aI229334
aa(lp883
V13
p884
aV06
p885
aI237124
aa(lp886
V13
p887
aV07
p888
aI237823
aa(lp889
V13
p890
aV08
p891
aI235640
aa(lp892
V13
p893
aV09
p894
aI243657
aa(lp895
V13
p896
aV10
p897
aI246959
aa(lp898
V13
p899
aV11
p900
aI241950
aa(lp901
V13
p902
aV12
p903
aI235876
aa(lp904
V13
p905
aV13
p906
aI237342
aa(lp907
V13
p908
aV14
p909
aI245179
aa(lp910
V13
p911
aV15
p912
aI251215
aa(lp913
V13
p914
aV16
p915
aI252204
aa(lp916
V13
p917
aV17
p918
aI236333
aa(lp919
V13
p920
aV18
p921
aI212286
aa(lp922
V13
p923
aV19
p924
aI195736
aa(lp925
V13
p926
aV20
p927
aI191025
aa(lp928
V13
p929
aV21
p930
aI185859
aa(lp931
V13
p932
aV22
p933
aI180095
aa(lp934
V13
p935
aV23
p936
aI177138
aa(lp937
V14
p938
aV00
p939
aI124476
aa(lp940
V14
p941
aV01
p942
aI71420
aa(lp943
V14
p944
aV02
p945
aI74593
aa(lp946
V14
p947
aV03
p948
aI84486
aa(lp949
V14
p950
aV04
p951
aI131287
aa(lp952
V14
p953
aV05
p954
aI167744
aa(lp955
V14
p956
aV06
p957
aI177895
aa(lp958
V14
p959
aV07
p960
aI178087
aa(lp961
V14
p962
aV08
p963
aI172926
aa(lp964
V14
p965
aV09
p966
aI172844
aa(lp967
V14
p968
aV10
p969
aI174864
aa(lp970
V14
p971
aV11
p972
aI166810
aa(lp973
V14
p974
aV12
p975
aI158896
aa(lp976
V14
p977
aV13
p978
aI159191
aa(lp979
V14
p980
aV14
p981
aI161696
aa(lp982
V14
p983
aV15
p984
aI163969
aa(lp985
V14
p986
aV16
p987
aI161544
aa(lp988
V14
p989
aV17
p990
aI143561
aa(lp991
V14
p992
aV18
p993
aI118837
aa(lp994
V14
p995
aV19
p996
aI105484
aa(lp997
V14
p998
aV20
p999
aI97680
aa(lp1000
V14
p1001
aV21
p1002
aI92398
aa(lp1003
V14
p1004
aV22
p1005
aI82711
aa(lp1006
V14
p1007
aV23
p1008
aI73755
aa(lp1009
V15
p1010
aV00
p1011
aI67250
aa(lp1012
V15
p1013
aV01
p1014
aI63798
aa(lp1015
V15
p1016
aV02
p1017
aI64922
aa(lp1018
V15
p1019
aV03
p1020
aI70203
aa(lp1021
V15
p1022
aV04
p1023
aI82274
aa(lp1024
V15
p1025
aV05
p1026
aI113101
aa(lp1027
V15
p1028
aV06
p1029
aI165415
aa(lp1030
V15
p1031
aV07
p1032
aI196662
aa(lp1033
V15
p1034
aV08
p1035
aI198479
aa(lp1036
V15
p1037
aV09
p1038
aI192269
aa(lp1039
V15
p1040
aV10
p1041
aI187877
aa(lp1042
V15
p1043
aV11
p1044
aI172493
aa(lp1045
V15
p1046
aV12
p1047
aI158752
aa(lp1048
V15
p1049
aV13
p1050
aI153635
aa(lp1051
V15
p1052
aV14
p1053
aI151805
aa(lp1054
V15
p1055
aV15
p1056
aI152814
aa(lp1057
V15
p1058
aV16
p1059
aI155775
aa(lp1060
V15
p1061
aV17
p1062
aI138473
aa(lp1063
V15
p1064
aV18
p1065
aI116927
aa(lp1066
V15
p1067
aV19
p1068
aI103642
aa(lp1069
V15
p1070
aV20
p1071
aI97745
aa(lp1072
V15
p1073
aV21
p1074
aI92317
aa(lp1075
V15
p1076
aV22
p1077
aI83914
aa(lp1078
V15
p1079
aV23
p1080
aI75000
aa(lp1081
V16
p1082
aV00
p1083
aI68942
aa(lp1084
V16
p1085
aV01
p1086
aI66645
aa(lp1087
V16
p1088
aV02
p1089
aI66151
aa(lp1090
V16
p1091
aV03
p1092
aI67365
aa(lp1093
V16
p1094
aV04
p1095
aI74476
aa(lp1096
V16
p1097
aV05
p1098
aI96102
aa(lp1099
V16
p1100
aV06
p1101
aI144962
aa(lp1102
V16
p1103
aV07
p1104
aI186173
aa(lp1105
V16
p1106
aV08
p1107
aI193655
aa(lp1108
V16
p1109
aV09
p1110
aI189343
aa(lp1111
V16
p1112
aV10
p1113
aI178494
aa(lp1114
V16
p1115
aV11
p1116
aI158775
aa(lp1117
V16
p1118
aV12
p1119
aI141869
aa(lp1120
V16
p1121
aV13
p1122
aI134481
aa(lp1123
V16
p1124
aV14
p1125
aI130308
aa(lp1126
V16
p1127
aV15
p1128
aI135837
aa(lp1129
V16
p1130
aV16
p1131
aI138890
aa(lp1132
V16
p1133
aV17
p1134
aI126572
aa(lp1135
V16
p1136
aV18
p1137
aI103770
aa(lp1138
V16
p1139
aV19
p1140
aI92111
aa(lp1141
V16
p1142
aV20
p1143
aI86372
aa(lp1144
V16
p1145
aV21
p1146
aI79807
aa(lp1147
V16
p1148
aV22
p1149
aI72383
aa(lp1150
V16
p1151
aV23
p1152
aI66786
aa(lp1153
V17
p1154
aV00
p1155
aI64436
aa(lp1156
V17
p1157
aV01
p1158
aI64202
aa(lp1159
V17
p1160
aV02
p1161
aI67458
aa(lp1162
V17
p1163
aV03
p1164
aI83997
aa(lp1165
V17
p1166
aV04
p1167
aI132981
aa(lp1168
V17
p1169
aV05
p1170
aI165168
aa(lp1171
V17
p1172
aV06
p1173
aI170205
aa(lp1174
V17
p1175
aV07
p1176
aI169012
aa(lp1177
V17
p1178
aV08
p1179
aI165607
aa(lp1180
V17
p1181
aV09
p1182
aI166920
aa(lp1183
V17
p1184
aV10
p1185
aI172470
aa(lp1186
V17
p1187
aV11
p1188
aI165366
aa(lp1189
V17
p1190
aV12
p1191
aI157745
aa(lp1192
V17
p1193
aV13
p1194
aI158170
aa(lp1195
V17
p1196
aV14
p1197
aI160077
aa(lp1198
V17
p1199
aV15
p1200
aI163271
aa(lp1201
V17
p1202
aV16
p1203
aI162964
aa(lp1204
V17
p1205
aV17
p1206
aI145843
aa(lp1207
V17
p1208
aV18
p1209
aI117930
aa(lp1210
V17
p1211
aV19
p1212
aI101491
aa(lp1213
V17
p1214
aV20
p1215
aI95645
aa(lp1216
V17
p1217
aV21
p1218
aI95663
aa(lp1219
V17
p1220
aV22
p1221
aI76369
aa(lp1222
V17
p1223
aV23
p1224
aI71408
aa(lp1225
V18
p1226
aV00
p1227
aI67758
aa(lp1228
V18
p1229
aV01
p1230
aI66748
aa(lp1231
V18
p1232
aV02
p1233
aI69747
aa(lp1234
V18
p1235
aV03
p1236
aI87689
aa(lp1237
V18
p1238
aV04
p1239
aI139140
aa(lp1240
V18
p1241
aV05
p1242
aI170602
aa(lp1243
V18
p1244
aV06
p1245
aI175041
aa(lp1246
V18
p1247
aV07
p1248
aI172911
aa(lp1249
V18
p1250
aV08
p1251
aI166585
aa(lp1252
V18
p1253
aV09
p1254
aI168648
aa(lp1255
V18
p1256
aV10
p1257
aI172031
aa(lp1258
V18
p1259
aV11
p1260
aI163610
aa(lp1261
V18
p1262
aV12
p1263
aI157781
aa(lp1264
V18
p1265
aV13
p1266
aI157406
aa(lp1267
V18
p1268
aV14
p1269
aI163103
aa(lp1270
V18
p1271
aV15
p1272
aI166920
aa(lp1273
V18
p1274
aV16
p1275
aI167288
aa(lp1276
V18
p1277
aV17
p1278
aI147954
aa(lp1279
V18
p1280
aV18
p1281
aI123304
aa(lp1282
V18
p1283
aV19
p1284
aI108597
aa(lp1285
V18
p1286
aV20
p1287
aI100858
aa(lp1288
V18
p1289
aV21
p1290
aI94790
aa(lp1291
V18
p1292
aV22
p1293
aI84595
aa(lp1294
V18
p1295
aV23
p1296
aI76454
aa(lp1297
V19
p1298
aV00
p1299
aI72021
aa(lp1300
V19
p1301
aV01
p1302
aI71065
aa(lp1303
V19
p1304
aV02
p1305
aI73735
aa(lp1306
V19
p1307
aV03
p1308
aI91778
aa(lp1309
V19
p1310
aV04
p1311
aI140351
aa(lp1312
V19
p1313
aV05
p1314
aI173011
aa(lp1315
V19
p1316
aV06
p1317
aI178545
aa(lp1318
V19
p1319
aV07
p1320
aI180227
aa(lp1321
V19
p1322
aV08
p1323
aI173312
aa(lp1324
V19
p1325
aV09
p1326
aI173787
aa(lp1327
V19
p1328
aV10
p1329
aI180330
aa(lp1330
V19
p1331
aV11
p1332
aI176408
aa(lp1333
V19
p1334
aV12
p1335
aI167302
aa(lp1336
V19
p1337
aV13
p1338
aI164131
aa(lp1339
V19
p1340
aV14
p1341
aI166716
aa(lp1342
V19
p1343
aV15
p1344
aI166186
aa(lp1345
V19
p1346
aV16
p1347
aI165734
aa(lp1348
V19
p1349
aV17
p1350
aI145533
aa(lp1351
V19
p1352
aV18
p1353
aI121427
aa(lp1354
V19
p1355
aV19
p1356
aI106082
aa(lp1357
V19
p1358
aV20
p1359
aI98023
aa(lp1360
V19
p1361
aV21
p1362
aI90818
aa(lp1363
V19
p1364
aV22
p1365
aI82190
aa(lp1366
V19
p1367
aV23
p1368
aI72676
aa(lp1369
V20
p1370
aV00
p1371
aI67094
aa(lp1372
V20
p1373
aV01
p1374
aI63971
aa(lp1375
V20
p1376
aV02
p1377
aI66562
aa(lp1378
V20
p1379
aV03
p1380
aI86124
aa(lp1381
V20
p1382
aV04
p1383
aI132890
aa(lp1384
V20
p1385
aV05
p1386
aI167052
aa(lp1387
V20
p1388
aV06
p1389
aI171099
aa(lp1390
V20
p1391
aV07
p1392
aI169866
aa(lp1393
V20
p1394
aV08
p1395
aI164720
aa(lp1396
V20
p1397
aV09
p1398
aI167805
aa(lp1399
V20
p1400
aV10
p1401
aI170775
aa(lp1402
V20
p1403
aV11
p1404
aI161310
aa(lp1405
V20
p1406
aV12
p1407
aI153284
aa(lp1408
V20
p1409
aV13
p1410
aI153062
aa(lp1411
V20
p1412
aV14
p1413
aI157755
aa(lp1414
V20
p1415
aV15
p1416
aI165191
aa(lp1417
V20
p1418
aV16
p1419
aI162221
aa(lp1420
V20
p1421
aV17
p1422
aI144426
aa(lp1423
V20
p1424
aV18
p1425
aI116737
aa(lp1426
V20
p1427
aV19
p1428
aI101295
aa(lp1429
V20
p1430
aV20
p1431
aI94272
aa(lp1432
V20
p1433
aV21
p1434
aI86714
aa(lp1435
V20
p1436
aV22
p1437
aI79044
aa(lp1438
V20
p1439
aV23
p1440
aI71890
aa(lp1441
V21
p1442
aV00
p1443
aI70035
aa(lp1444
V21
p1445
aV01
p1446
aI68046
aa(lp1447
V21
p1448
aV02
p1449
aI70751
aa(lp1450
V21
p1451
aV03
p1452
aI88263
aa(lp1453
V21
p1454
aV04
p1455
aI135005
aa(lp1456
V21
p1457
aV05
p1458
aI168844
aa(lp1459
V21
p1460
aV06
p1461
aI176390
aa(lp1462
V21
p1463
aV07
p1464
aI179578
aa(lp1465
V21
p1466
aV08
p1467
aI175388
aa(lp1468
V21
p1469
aV09
p1470
aI177580
aa(lp1471
V21
p1472
aV10
p1473
aI178898
aa(lp1474
V21
p1475
aV11
p1476
aI171040
aa(lp1477
V21
p1478
aV12
p1479
aI162098
aa(lp1480
V21
p1481
aV13
p1482
aI161246
aa(lp1483
V21
p1484
aV14
p1485
aI163368
aa(lp1486
V21
p1487
aV15
p1488
aI165940
aa(lp1489
V21
p1490
aV16
p1491
aI150462
aa(lp1492
V21
p1493
aV17
p1494
aI127588
aa(lp1495
V21
p1496
aV18
p1497
aI109702
aa(lp1498
V21
p1499
aV19
p1500
aI95402
aa(lp1501
V21
p1502
aV20
p1503
aI88534
aa(lp1504
V21
p1505
aV21
p1506
aI84378
aa(lp1507
V21
p1508
aV22
p1509
aI76475
aa(lp1510
V21
p1511
aV23
p1512
aI68600
aa(lp1513
V22
p1514
aV00
p1515
aI63232
aa(lp1516
V22
p1517
aV01
p1518
aI61211
aa(lp1519
V22
p1520
aV02
p1521
aI60160
aa(lp1522
V22
p1523
aV03
p1524
aI63251
aa(lp1525
V22
p1526
aV04
p1527
aI76394
aa(lp1528
V22
p1529
aV05
p1530
aI107991
aa(lp1531
V22
p1532
aV06
p1533
aI158304
aa(lp1534
V22
p1535
aV07
p1536
aI191475
aa(lp1537
V22
p1538
aV08
p1539
aI197408
aa(lp1540
V22
p1541
aV09
p1542
aI190326
aa(lp1543
V22
p1544
aV10
p1545
aI183364
aa(lp1546
V22
p1547
aV11
p1548
aI169039
aa(lp1549
V22
p1550
aV12
p1551
aI158994
aa(lp1552
V22
p1553
aV13
p1554
aI150540
aa(lp1555
V22
p1556
aV14
p1557
aI148986
aa(lp1558
V22
p1559
aV15
p1560
aI151347
aa(lp1561
V22
p1562
aV16
p1563
aI150669
aa(lp1564
V22
p1565
aV17
p1566
aI136237
aa(lp1567
V22
p1568
aV18
p1569
aI112897
aa(lp1570
V22
p1571
aV19
p1572
aI99535
aa(lp1573
V22
p1574
aV20
p1575
aI91164
aa(lp1576
V22
p1577
aV21
p1578
aI85416
aa(lp1579
V22
p1580
aV22
p1581
aI78220
aa(lp1582
V22
p1583
aV23
p1584
aI72340
aa(lp1585
V23
p1586
aV00
p1587
aI66768
aa(lp1588
V23
p1589
aV01
p1590
aI64795
aa(lp1591
V23
p1592
aV02
p1593
aI65857
aa(lp1594
V23
p1595
aV03
p1596
aI68292
aa(lp1597
V23
p1598
aV04
p1599
aI74040
aa(lp1600
V23
p1601
aV05
p1602
aI93132
aa(lp1603
V23
p1604
aV06
p1605
aI137352
aa(lp1606
V23
p1607
aV07
p1608
aI183422
aa(lp1609
V23
p1610
aV08
p1611
aI196834
aa(lp1612
V23
p1613
aV09
p1614
aI192993
aa(lp1615
V23
p1616
aV10
p1617
aI184462
aa(lp1618
V23
p1619
aV11
p1620
aI166052
aa(lp1621
V23
p1622
aV12
p1623
aI149140
aa(lp1624
V23
p1625
aV13
p1626
aI139958
aa(lp1627
V23
p1628
aV14
p1629
aI135792
aa(lp1630
V23
p1631
aV15
p1632
aI137830
aa(lp1633
V23
p1634
aV16
p1635
aI140472
aa(lp1636
V23
p1637
aV17
p1638
aI125961
aa(lp1639
V23
p1640
aV18
p1641
aI101172
aa(lp1642
V23
p1643
aV19
p1644
aI87108
aa(lp1645
V23
p1646
aV20
p1647
aI83671
aa(lp1648
V23
p1649
aV21
p1650
aI79523
aa(lp1651
V23
p1652
aV22
p1653
aI73884
aa(lp1654
V23
p1655
aV23
p1656
aI67724
aa(lp1657
V24
p1658
aV00
p1659
aI64556
aa(lp1660
V24
p1661
aV01
p1662
aI62722
aa(lp1663
V24
p1664
aV02
p1665
aI67629
aa(lp1666
V24
p1667
aV03
p1668
aI87269
aa(lp1669
V24
p1670
aV04
p1671
aI139247
aa(lp1672
V24
p1673
aV05
p1674
aI171284
aa(lp1675
V24
p1676
aV06
p1677
aI176179
aa(lp1678
V24
p1679
aV07
p1680
aI173968
aa(lp1681
V24
p1682
aV08
p1683
aI170912
aa(lp1684
V24
p1685
aV09
p1686
aI173316
aa(lp1687
V24
p1688
aV10
p1689
aI175972
aa(lp1690
V24
p1691
aV11
p1692
aI167357
aa(lp1693
V24
p1694
aV12
p1695
aI156276
aa(lp1696
V24
p1697
aV13
p1698
aI155962
aa(lp1699
V24
p1700
aV14
p1701
aI160182
aa(lp1702
V24
p1703
aV15
p1704
aI164352
aa(lp1705
V24
p1706
aV16
p1707
aI163747
aa(lp1708
V24
p1709
aV17
p1710
aI143837
aa(lp1711
V24
p1712
aV18
p1713
aI119960
aa(lp1714
V24
p1715
aV19
p1716
aI104033
aa(lp1717
V24
p1718
aV20
p1719
aI97911
aa(lp1720
V24
p1721
aV21
p1722
aI89429
aa(lp1723
V24
p1724
aV22
p1725
aI83199
aa(lp1726
V24
p1727
aV23
p1728
aI76549
aa(lp1729
V25
p1730
aV00
p1731
aI23725
aa(lp1732
V25
p1733
aV01
p1734
aI22824
aa(lp1735
V25
p1736
aV02
p1737
aI22125
aa(lp1738
V25
p1739
aV03
p1740
aI21423
aa(lp1741
V25
p1742
aV04
p1743
aI19624
aa(lp1744
V25
p1745
aV05
p1746
aI18965
aa(lp1747
V25
p1748
aV06
p1749
aI19064
aa(lp1750
V25
p1751
aV07
p1752
aI18096
aa(lp1753
V25
p1754
aV08
p1755
aI18047
aa(lp1756
V25
p1757
aV09
p1758
aI19004
aa(lp1759
V25
p1760
aV10
p1761
aI21174
aa(lp1762
V25
p1763
aV11
p1764
aI24141
aa(lp1765
V25
p1766
aV12
p1767
aI25285
aa(lp1768
V25
p1769
aV13
p1770
aI26430
aa(lp1771
V25
p1772
aV14
p1773
aI27917
aa(lp1774
V25
p1775
aV15
p1776
aI27532
aa(lp1777
V25
p1778
aV16
p1779
aI28008
aa(lp1780
V25
p1781
aV17
p1782
aI29177
aa(lp1783
V25
p1784
aV18
p1785
aI29750
aa(lp1786
V25
p1787
aV19
p1788
aI28828
aa(lp1789
V25
p1790
aV20
p1791
aI28340
aa(lp1792
V25
p1793
aV21
p1794
aI21156
aa(lp1795
V25
p1796
aV22
p1797
aI24126
aa(lp1798
V25
p1799
aV23
p1800
aI35176
aa(lp1801
V26
p1802
aV00
p1803
aI33989
aa(lp1804
V26
p1805
aV01
p1806
aI36324
aa(lp1807
V26
p1808
aV02
p1809
aI42043
aa(lp1810
V26
p1811
aV03
p1812
aI63502
aa(lp1813
V26
p1814
aV04
p1815
aI133321
aa(lp1816
V26
p1817
aV05
p1818
aI165339
aa(lp1819
V26
p1820
aV06
p1821
aI168865
aa(lp1822
V26
p1823
aV07
p1824
aI171219
aa(lp1825
V26
p1826
aV08
p1827
aI169766
aa(lp1828
V26
p1829
aV09
p1830
aI172262
aa(lp1831
V26
p1832
aV10
p1833
aI175140
aa(lp1834
V26
p1835
aV11
p1836
aI167627
aa(lp1837
V26
p1838
aV12
p1839
aI160193
aa(lp1840
V26
p1841
aV13
p1842
aI159640
aa(lp1843
V26
p1844
aV14
p1845
aI164274
aa(lp1846
V26
p1847
aV15
p1848
aI168393
aa(lp1849
V26
p1850
aV16
p1851
aI164650
aa(lp1852
V26
p1853
aV17
p1854
aI145948
aa(lp1855
V26
p1856
aV18
p1857
aI122133
aa(lp1858
V26
p1859
aV19
p1860
aI107712
aa(lp1861
V26
p1862
aV20
p1863
aI99884
aa(lp1864
V26
p1865
aV21
p1866
aI93360
aa(lp1867
V26
p1868
aV22
p1869
aI84080
aa(lp1870
V26
p1871
aV23
p1872
aI78645
aa(lp1873
V27
p1874
aV00
p1875
aI54395
aa(lp1876
V27
p1877
aV01
p1878
aI38182
aa(lp1879
V27
p1880
aV02
p1881
aI38240
aa(lp1882
V27
p1883
aV03
p1884
aI45535
aa(lp1885
V27
p1886
aV04
p1887
aI83461
aa(lp1888
V27
p1889
aV05
p1890
aI113101
aa(lp1891
V27
p1892
aV06
p1893
aI139278
aa(lp1894
V27
p1895
aV07
p1896
aI146979
aa(lp1897
V27
p1898
aV08
p1899
aI146738
aa(lp1900
V27
p1901
aV09
p1902
aI150068
aa(lp1903
V27
p1904
aV10
p1905
aI155416
aa(lp1906
V27
p1907
aV11
p1908
aI151347
aa(lp1909
V27
p1910
aV12
p1911
aI146014
aa(lp1912
V27
p1913
aV13
p1914
aI145888
aa(lp1915
V27
p1916
aV14
p1917
aI151866
aa(lp1918
V27
p1919
aV15
p1920
aI157735
aa(lp1921
V27
p1922
aV16
p1923
aI158524
aa(lp1924
V27
p1925
aV17
p1926
aI142257
aa(lp1927
V27
p1928
aV18
p1929
aI119409
aa(lp1930
V27
p1931
aV19
p1932
aI109395
aa(lp1933
V27
p1934
aV20
p1935
aI101921
aa(lp1936
V27
p1937
aV21
p1938
aI96175
aa(lp1939
V27
p1940
aV22
p1941
aI111115
aa(lp1942
V27
p1943
aV23
p1944
aI103061
aa(lp1945
V28
p1946
aV00
p1947
aI92525
aa(lp1948
V28
p1949
aV01
p1950
aI88341
aa(lp1951
V28
p1952
aV02
p1953
aI87415
aa(lp1954
V28
p1955
aV03
p1956
aI99502
aa(lp1957
V28
p1958
aV04
p1959
aI145147
aa(lp1960
V28
p1961
aV05
p1962
aI179967
aa(lp1963
V28
p1964
aV06
p1965
aI185856
aa(lp1966
V28
p1967
aV07
p1968
aI188695
aa(lp1969
V28
p1970
aV08
p1971
aI182687
aa(lp1972
V28
p1973
aV09
p1974
aI181486
aa(lp1975
V28
p1976
aV10
p1977
aI182709
aa(lp1978
V28
p1979
aV11
p1980
aI176778
aa(lp1981
V28
p1982
aV12
p1983
aI168253
aa(lp1984
V28
p1985
aV13
p1986
aI166401
aa(lp1987
V28
p1988
aV14
p1989
aI169440
aa(lp1990
V28
p1991
aV15
p1992
aI171203
aa(lp1993
V28
p1994
aV16
p1995
aI168533
aa(lp1996
V28
p1997
aV17
p1998
aI150010
aa(lp1999
V28
p2000
aV18
p2001
aI126379
aa(lp2002
V28
p2003
aV19
p2004
aI114213
aa(lp2005
V28
p2006
aV20
p2007
aI105486
aa(lp2008
V28
p2009
aV21
p2010
aI99426
aa(lp2011
V28
p2012
aV22
p2013
aI92003
aa(lp2014
V28
p2015
aV23
p2016
aI83582
aa(lp2017
V29
p2018
aV00
p2019
aI74944
aa(lp2020
V29
p2021
aV01
p2022
aI72349
aa(lp2023
V29
p2024
aV02
p2025
aI73492
aa(lp2026
V29
p2027
aV03
p2028
aI76316
aa(lp2029
V29
p2030
aV04
p2031
aI89026
aa(lp2032
V29
p2033
aV05
p2034
aI118973
aa(lp2035
V29
p2036
aV06
p2037
aI170523
aa(lp2038
V29
p2039
aV07
p2040
aI206334
aa(lp2041
V29
p2042
aV08
p2043
aI208290
aa(lp2044
V29
p2045
aV09
p2046
aI199920
aa(lp2047
V29
p2048
aV10
p2049
aI192499
aa(lp2050
V29
p2051
aV11
p2052
aI178749
aa(lp2053
V29
p2054
aV12
p2055
aI165290
aa(lp2056
V29
p2057
aV13
p2058
aI157277
aa(lp2059
V29
p2060
aV14
p2061
aI155369
aa(lp2062
V29
p2063
aV15
p2064
aI158464
aa(lp2065
V29
p2066
aV16
p2067
aI156231
aa(lp2068
V29
p2069
aV17
p2070
aI140742
aa(lp2071
V29
p2072
aV18
p2073
aI116813
aa(lp2074
V29
p2075
aV19
p2076
aI102132
aa(lp2077
V29
p2078
aV20
p2079
aI95801
aa(lp2080
V29
p2081
aV21
p2082
aI92151
aa(lp2083
V29
p2084
aV22
p2085
aI84036
aa(lp2086
V29
p2087
aV23
p2088
aI74905
aa(lp2089
V30
p2090
aV00
p2091
aI68701
aa(lp2092
V30
p2093
aV01
p2094
aI66361
aa(lp2095
V30
p2096
aV02
p2097
aI66952
aa(lp2098
V30
p2099
aV03
p2100
aI67453
aa(lp2101
V30
p2102
aV04
p2103
aI68733
aa(lp2104
V30
p2105
aV05
p2106
aI79044
aa(lp2107
V30
p2108
aV06
p2109
aI118381
aa(lp2110
V30
p2111
aV07
p2112
aI172090
aa(lp2113
V30
p2114
aV08
p2115
aI198563
aa(lp2116
V30
p2117
aV09
p2118
aI197103
aa(lp2119
V30
p2120
aV10
p2121
aI185425
aa(lp2122
V30
p2123
aV11
p2124
aI170942
aa(lp2125
V30
p2126
aV12
p2127
aI150211
aa(lp2128
V30
p2129
aV13
p2130
aI136239
aa(lp2131
V30
p2132
aV14
p2133
aI131431
aa(lp2134
V30
p2135
aV15
p2136
aI132634
aa(lp2137
V30
p2138
aV16
p2139
aI137459
aa(lp2140
V30
p2141
aV17
p2142
aI134874
aa(lp2143
V30
p2144
aV18
p2145
aI115348
aa(lp2146
V30
p2147
aV19
p2148
aI94899
aa(lp2149
V30
p2150
aV20
p2151
aI88603
aa(lp2152
V30
p2153
aV21
p2154
aI83199
aa(lp2155
V30
p2156
aV22
p2157
aI77677
aa(lp2158
V30
p2159
aV23
p2160
aI70122
aa(lp2161
V31
p2162
aV00
p2163
aI64561
aa(lp2164
V31
p2165
aV01
p2166
aI60952
aa(lp2167
V31
p2168
aV02
p2169
aI61179
aa(lp2170
V31
p2171
aV03
p2172
aI63863
aa(lp2173
V31
p2174
aV04
p2175
aI79164
aa(lp2176
V31
p2177
aV05
p2178
aI121804
aa(lp2179
V31
p2180
aV06
p2181
aI163799
aa(lp2182
V31
p2183
aV07
p2184
aI182464
aa(lp2185
V31
p2186
aV08
p2187
aI183456
aa(lp2188
V31
p2189
aV09
p2190
aI176218
aa(lp2191
V31
p2192
aV10
p2193
aI176682
aa(lp2194
V31
p2195
aV11
p2196
aI177055
aa(lp2197
V31
p2198
aV12
p2199
aI164530
aa(lp2200
V31
p2201
aV13
p2202
aI156510
aa(lp2203
V31
p2204
aV14
p2205
aI155853
aa(lp2206
V31
p2207
aV15
p2208
aI158850
aa(lp2209
V31
p2210
aV16
p2211
aI162559
aa(lp2212
V31
p2213
aV17
p2214
aI154991
aa(lp2215
V31
p2216
aV18
p2217
aI136160
aa(lp2218
V31
p2219
aV19
p2220
aI114159
aa(lp2221
V31
p2222
aV20
p2223
aI102080
aa(lp2224
V31
p2225
aV21
p2226
aI95118
aa(lp2227
V31
p2228
aV22
p2229
aI88529
aa(lp2230
V31
p2231
aV23
p2232
aI79507
aa.