(lp0
(lp1
V01
p2
aV00
p3
aI8999
aa(lp4
V01
p5
aV01
p6
aI8146
aa(lp7
V01
p8
aV02
p9
aI7619
aa(lp10
V01
p11
aV03
p12
aI7798
aa(lp13
V01
p14
aV04
p15
aI10943
aa(lp16
V01
p17
aV05
p18
aI18177
aa(lp19
V01
p20
aV06
p21
aI21457
aa(lp22
V01
p23
aV07
p24
aI19552
aa(lp25
V01
p26
aV08
p27
aI17252
aa(lp28
V01
p29
aV09
p30
aI15652
aa(lp31
V01
p32
aV10
p33
aI15504
aa(lp34
V01
p35
aV11
p36
aI16569
aa(lp37
V01
p38
aV12
p39
aI16507
aa(lp40
V01
p41
aV13
p42
aI16067
aa(lp43
V01
p44
aV14
p45
aI16251
aa(lp46
V01
p47
aV15
p48
aI17546
aa(lp49
V01
p50
aV16
p51
aI19053
aa(lp52
V01
p53
aV17
p54
aI19175
aa(lp55
V01
p56
aV18
p57
aI17329
aa(lp58
V01
p59
aV19
p60
aI14743
aa(lp61
V01
p62
aV20
p63
aI13011
aa(lp64
V01
p65
aV21
p66
aI12522
aa(lp67
V01
p68
aV22
p69
aI11594
aa(lp70
V01
p71
aV23
p72
aI10189
aa(lp73
V02
p74
aV00
p75
aI8986
aa(lp76
V02
p77
aV01
p78
aI8119
aa(lp79
V02
p80
aV02
p81
aI7656
aa(lp82
V02
p83
aV03
p84
aI7803
aa(lp85
V02
p86
aV04
p87
aI10645
aa(lp88
V02
p89
aV05
p90
aI17817
aa(lp91
V02
p92
aV06
p93
aI21301
aa(lp94
V02
p95
aV07
p96
aI20042
aa(lp97
V02
p98
aV08
p99
aI18076
aa(lp100
V02
p101
aV09
p102
aI16461
aa(lp103
V02
p104
aV10
p105
aI16215
aa(lp106
V02
p107
aV11
p108
aI17340
aa(lp109
V02
p110
aV12
p111
aI17328
aa(lp112
V02
p113
aV13
p114
aI16910
aa(lp115
V02
p116
aV14
p117
aI17388
aa(lp118
V02
p119
aV15
p120
aI18630
aa(lp121
V02
p122
aV16
p123
aI19760
aa(lp124
V02
p125
aV17
p126
aI19599
aa(lp127
V02
p128
aV18
p129
aI17538
aa(lp130
V02
p131
aV19
p132
aI14820
aa(lp133
V02
p134
aV20
p135
aI13143
aa(lp136
V02
p137
aV21
p138
aI12599
aa(lp139
V02
p140
aV22
p141
aI12137
aa(lp142
V02
p143
aV23
p144
aI10942
aa(lp145
V03
p146
aV00
p147
aI9422
aa(lp148
V03
p149
aV01
p150
aI8397
aa(lp151
V03
p152
aV02
p153
aI7717
aa(lp154
V03
p155
aV03
p156
aI7434
aa(lp157
V03
p158
aV04
p159
aI7663
aa(lp160
V03
p161
aV05
p162
aI9350
aa(lp163
V03
p164
aV06
p165
aI13930
aa(lp166
V03
p167
aV07
p168
aI20320
aa(lp169
V03
p170
aV08
p171
aI23113
aa(lp172
V03
p173
aV09
p174
aI22230
aa(lp175
V03
p176
aV10
p177
aI20534
aa(lp178
V03
p179
aV11
p180
aI19989
aa(lp181
V03
p182
aV12
p183
aI18995
aa(lp184
V03
p185
aV13
p186
aI18283
aa(lp187
V03
p188
aV14
p189
aI18352
aa(lp190
V03
p191
aV15
p192
aI19091
aa(lp193
V03
p194
aV16
p195
aI19862
aa(lp196
V03
p197
aV17
p198
aI19475
aa(lp199
V03
p200
aV18
p201
aI17634
aa(lp202
V03
p203
aV19
p204
aI15207
aa(lp205
V03
p206
aV20
p207
aI13379
aa(lp208
V03
p209
aV21
p210
aI12783
aa(lp211
V03
p212
aV22
p213
aI12339
aa(lp214
V03
p215
aV23
p216
aI11152
aa(lp217
V04
p218
aV00
p219
aI9808
aa(lp220
V04
p221
aV01
p222
aI8635
aa(lp223
V04
p224
aV02
p225
aI7828
aa(lp226
V04
p227
aV03
p228
aI7394
aa(lp229
V04
p230
aV04
p231
aI7271
aa(lp232
V04
p233
aV05
p234
aI8099
aa(lp235
V04
p236
aV06
p237
aI11178
aa(lp238
V04
p239
aV07
p240
aI17337
aa(lp241
V04
p242
aV08
p243
aI21754
aa(lp244
V04
p245
aV09
p246
aI22047
aa(lp247
V04
p248
aV10
p249
aI20957
aa(lp250
V04
p251
aV11
p252
aI19732
aa(lp253
V04
p254
aV12
p255
aI17892
aa(lp256
V04
p257
aV13
p258
aI16727
aa(lp259
V04
p260
aV14
p261
aI16525
aa(lp262
V04
p263
aV15
p264
aI17114
aa(lp265
V04
p266
aV16
p267
aI18020
aa(lp268
V04
p269
aV17
p270
aI18508
aa(lp271
V04
p272
aV18
p273
aI16992
aa(lp274
V04
p275
aV19
p276
aI14182
aa(lp277
V04
p278
aV20
p279
aI12493
aa(lp280
V04
p281
aV21
p282
aI12156
aa(lp283
V04
p284
aV22
p285
aI11353
aa(lp286
V04
p287
aV23
p288
aI9959
aa(lp289
V05
p290
aV00
p291
aI8901
aa(lp292
V05
p293
aV01
p294
aI8101
aa(lp295
V05
p296
aV02
p297
aI7602
aa(lp298
V05
p299
aV03
p300
aI7746
aa(lp301
V05
p302
aV04
p303
aI10764
aa(lp304
V05
p305
aV05
p306
aI17959
aa(lp307
V05
p308
aV06
p309
aI21280
aa(lp310
V05
p311
aV07
p312
aI19488
aa(lp313
V05
p314
aV08
p315
aI17319
aa(lp316
V05
p317
aV09
p318
aI15780
aa(lp319
V05
p320
aV10
p321
aI15732
aa(lp322
V05
p323
aV11
p324
aI16781
aa(lp325
V05
p326
aV12
p327
aI16514
aa(lp328
V05
p329
aV13
p330
aI15989
aa(lp331
V05
p332
aV14
p333
aI16401
aa(lp334
V05
p335
aV15
p336
aI17883
aa(lp337
V05
p338
aV16
p339
aI19441
aa(lp340
V05
p341
aV17
p342
aI19565
aa(lp343
V05
p344
aV18
p345
aI17754
aa(lp346
V05
p347
aV19
p348
aI14879
aa(lp349
V05
p350
aV20
p351
aI13030
aa(lp352
V05
p353
aV21
p354
aI12706
aa(lp355
V05
p356
aV22
p357
aI11756
aa(lp358
V05
p359
aV23
p360
aI10324
aa(lp361
V06
p362
aV00
p363
aI9101
aa(lp364
V06
p365
aV01
p366
aI8342
aa(lp367
V06
p368
aV02
p369
aI7861
aa(lp370
V06
p371
aV03
p372
aI8042
aa(lp373
V06
p374
aV04
p375
aI10967
aa(lp376
V06
p377
aV05
p378
aI18139
aa(lp379
V06
p380
aV06
p381
aI21479
aa(lp382
V06
p383
aV07
p384
aI19653
aa(lp385
V06
p386
aV08
p387
aI17275
aa(lp388
V06
p389
aV09
p390
aI15652
aa(lp391
V06
p392
aV10
p393
aI15529
aa(lp394
V06
p395
aV11
p396
aI16618
aa(lp397
V06
p398
aV12
p399
aI16438
aa(lp400
V06
p401
aV13
p402
aI15883
aa(lp403
V06
p404
aV14
p405
aI16300
aa(lp406
V06
p407
aV15
p408
aI17533
aa(lp409
V06
p410
aV16
p411
aI19207
aa(lp412
V06
p413
aV17
p414
aI19486
aa(lp415
V06
p416
aV18
p417
aI17584
aa(lp418
V06
p419
aV19
p420
aI14849
aa(lp421
V06
p422
aV20
p423
aI13356
aa(lp424
V06
p425
aV21
p426
aI12816
aa(lp427
V06
p428
aV22
p429
aI11989
aa(lp430
V06
p431
aV23
p432
aI10516
aa(lp433
V07
p434
aV00
p435
aI9238
aa(lp436
V07
p437
aV01
p438
aI8339
aa(lp439
V07
p440
aV02
p441
aI7809
aa(lp442
V07
p443
aV03
p444
aI8143
aa(lp445
V07
p446
aV04
p447
aI11059
aa(lp448
V07
p449
aV05
p450
aI18199
aa(lp451
V07
p452
aV06
p453
aI21487
aa(lp454
V07
p455
aV07
p456
aI19846
aa(lp457
V07
p458
aV08
p459
aI17280
aa(lp460
V07
p461
aV09
p462
aI15653
aa(lp463
V07
p464
aV10
p465
aI15721
aa(lp466
V07
p467
aV11
p468
aI16826
aa(lp469
V07
p470
aV12
p471
aI16654
aa(lp472
V07
p473
aV13
p474
aI16259
aa(lp475
V07
p476
aV14
p477
aI16577
aa(lp478
V07
p479
aV15
p480
aI17928
aa(lp481
V07
p482
aV16
p483
aI19155
aa(lp484
V07
p485
aV17
p486
aI19379
aa(lp487
V07
p488
aV18
p489
aI17528
aa(lp490
V07
p491
aV19
p492
aI14719
aa(lp493
V07
p494
aV20
p495
aI12977
aa(lp496
V07
p497
aV21
p498
aI12537
aa(lp499
V07
p500
aV22
p501
aI11874
aa(lp502
V07
p503
aV23
p504
aI10332
aa(lp505
V08
p506
aV00
p507
aI8921
aa(lp508
V08
p509
aV01
p510
aI8094
aa(lp511
V08
p512
aV02
p513
aI7580
aa(lp514
V08
p515
aV03
p516
aI7740
aa(lp517
V08
p518
aV04
p519
aI10765
aa(lp520
V08
p521
aV05
p522
aI17569
aa(lp523
V08
p524
aV06
p525
aI20856
aa(lp526
V08
p527
aV07
p528
aI19454
aa(lp529
V08
p530
aV08
p531
aI17400
aa(lp532
V08
p533
aV09
p534
aI15958
aa(lp535
V08
p536
aV10
p537
aI15779
aa(lp538
V08
p539
aV11
p540
aI16706
aa(lp541
V08
p542
aV12
p543
aI16457
aa(lp544
V08
p545
aV13
p546
aI15889
aa(lp547
V08
p548
aV14
p549
aI16330
aa(lp550
V08
p551
aV15
p552
aI17597
aa(lp553
V08
p554
aV16
p555
aI18940
aa(lp556
V08
p557
aV17
p558
aI19348
aa(lp559
V08
p560
aV18
p561
aI17474
aa(lp562
V08
p563
aV19
p564
aI14946
aa(lp565
V08
p566
aV20
p567
aI13182
aa(lp568
V08
p569
aV21
p570
aI12716
aa(lp571
V08
p572
aV22
p573
aI11879
aa(lp574
V08
p575
aV23
p576
aI10449
aa(lp577
V09
p578
aV00
p579
aI9088
aa(lp580
V09
p581
aV01
p582
aI8149
aa(lp583
V09
p584
aV02
p585
aI7596
aa(lp586
V09
p587
aV03
p588
aI7808
aa(lp589
V09
p590
aV04
p591
aI10595
aa(lp592
V09
p593
aV05
p594
aI17366
aa(lp595
V09
p596
aV06
p597
aI21038
aa(lp598
V09
p599
aV07
p600
aI20078
aa(lp601
V09
p602
aV08
p603
aI18013
aa(lp604
V09
p605
aV09
p606
aI16474
aa(lp607
V09
p608
aV10
p609
aI16369
aa(lp610
V09
p611
aV11
p612
aI17360
aa(lp613
V09
p614
aV12
p615
aI17370
aa(lp616
V09
p617
aV13
p618
aI16929
aa(lp619
V09
p620
aV14
p621
aI17418
aa(lp622
V09
p623
aV15
p624
aI18516
aa(lp625
V09
p626
aV16
p627
aI19595
aa(lp628
V09
p629
aV17
p630
aI19590
aa(lp631
V09
p632
aV18
p633
aI17480
aa(lp634
V09
p635
aV19
p636
aI14733
aa(lp637
V09
p638
aV20
p639
aI13120
aa(lp640
V09
p641
aV21
p642
aI12744
aa(lp643
V09
p644
aV22
p645
aI12086
aa(lp646
V09
p647
aV23
p648
aI10885
aa(lp649
V10
p650
aV00
p651
aI9539
aa(lp652
V10
p653
aV01
p654
aI8492
aa(lp655
V10
p656
aV02
p657
aI7763
aa(lp658
V10
p659
aV03
p660
aI7529
aa(lp661
V10
p662
aV04
p663
aI7807
aa(lp664
V10
p665
aV05
p666
aI9262
aa(lp667
V10
p668
aV06
p669
aI13661
aa(lp670
V10
p671
aV07
p672
aI20009
aa(lp673
V10
p674
aV08
p675
aI22857
aa(lp676
V10
p677
aV09
p678
aI21883
aa(lp679
V10
p680
aV10
p681
aI20600
aa(lp682
V10
p683
aV11
p684
aI19850
aa(lp685
V10
p686
aV12
p687
aI18801
aa(lp688
V10
p689
aV13
p690
aI18066
aa(lp691
V10
p692
aV14
p693
aI18344
aa(lp694
V10
p695
aV15
p696
aI19099
aa(lp697
V10
p698
aV16
p699
aI20036
aa(lp700
V10
p701
aV17
p702
aI19761
aa(lp703
V10
p704
aV18
p705
aI17799
aa(lp706
V10
p707
aV19
p708
aI15477
aa(lp709
V10
p710
aV20
p711
aI13603
aa(lp712
V10
p713
aV21
p714
aI12995
aa(lp715
V10
p716
aV22
p717
aI12571
aa(lp718
V10
p719
aV23
p720
aI11495
aa(lp721
V11
p722
aV00
p723
aI10077
aa(lp724
V11
p725
aV01
p726
aI8780
aa(lp727
V11
p728
aV02
p729
aI7950
aa(lp730
V11
p731
aV03
p732
aI7488
aa(lp733
V11
p734
aV04
p735
aI7292
aa(lp736
V11
p737
aV05
p738
aI8038
aa(lp739
V11
p740
aV06
p741
aI11019
aa(lp742
V11
p743
aV07
p744
aI16991
aa(lp745
V11
p746
aV08
p747
aI21622
aa(lp748
V11
p749
aV09
p750
aI22187
aa(lp751
V11
p752
aV10
p753
aI20997
aa(lp754
V11
p755
aV11
p756
aI19912
aa(lp757
V11
p758
aV12
p759
aI18184
aa(lp760
V11
p761
aV13
p762
aI17119
aa(lp763
V11
p764
aV14
p765
aI16615
aa(lp766
V11
p767
aV15
p768
aI17288
aa(lp769
V11
p770
aV16
p771
aI18268
aa(lp772
V11
p773
aV17
p774
aI18599
aa(lp775
V11
p776
aV18
p777
aI17130
aa(lp778
V11
p779
aV19
p780
aI14363
aa(lp781
V11
p782
aV20
p783
aI12456
aa(lp784
V11
p785
aV21
p786
aI12161
aa(lp787
V11
p788
aV22
p789
aI11425
aa(lp790
V11
p791
aV23
p792
aI9959
aa(lp793
V12
p794
aV00
p795
aI8546
aa(lp796
V12
p797
aV01
p798
aI7837
aa(lp799
V12
p800
aV02
p801
aI7288
aa(lp802
V12
p803
aV03
p804
aI7521
aa(lp805
V12
p806
aV04
p807
aI10565
aa(lp808
V12
p809
aV05
p810
aI17726
aa(lp811
V12
p812
aV06
p813
aI21076
aa(lp814
V12
p815
aV07
p816
aI19418
aa(lp817
V12
p818
aV08
p819
aI17260
aa(lp820
V12
p821
aV09
p822
aI15568
aa(lp823
V12
p824
aV10
p825
aI15672
aa(lp826
V12
p827
aV11
p828
aI16803
aa(lp829
V12
p830
aV12
p831
aI16531
aa(lp832
V12
p833
aV13
p834
aI16153
aa(lp835
V12
p836
aV14
p837
aI16457
aa(lp838
V12
p839
aV15
p840
aI17768
aa(lp841
V12
p842
aV16
p843
aI19285
aa(lp844
V12
p845
aV17
p846
aI19523
aa(lp847
V12
p848
aV18
p849
aI17836
aa(lp850
V12
p851
aV19
p852
aI14958
aa(lp853
V12
p854
aV20
p855
aI13091
aa(lp856
V12
p857
aV21
p858
aI12723
aa(lp859
V12
p860
aV22
p861
aI11769
aa(lp862
V12
p863
aV23
p864
aI10373
aa(lp865
V13
p866
aV00
p867
aI9093
aa(lp868
V13
p869
aV01
p870
aI8149
aa(lp871
V13
p872
aV02
p873
aI7622
aa(lp874
V13
p875
aV03
p876
aI7951
aa(lp877
V13
p878
aV04
p879
aI10943
aa(lp880
V13
p881
aV05
p882
aI18253
aa(lp883
V13
p884
aV06
p885
aI21416
aa(lp886
V13
p887
aV07
p888
aI19414
aa(lp889
V13
p890
aV08
p891
aI17189
aa(lp892
V13
p893
aV09
p894
aI15303
aa(lp895
V13
p896
aV10
p897
aI15461
aa(lp898
V13
p899
aV11
p900
aI16615
aa(lp901
V13
p902
aV12
p903
aI16487
aa(lp904
V13
p905
aV13
p906
aI16003
aa(lp907
V13
p908
aV14
p909
aI16379
aa(lp910
V13
p911
aV15
p912
aI17734
aa(lp913
V13
p914
aV16
p915
aI19144
aa(lp916
V13
p917
aV17
p918
aI19441
aa(lp919
V13
p920
aV18
p921
aI17589
aa(lp922
V13
p923
aV19
p924
aI14885
aa(lp925
V13
p926
aV20
p927
aI13194
aa(lp928
V13
p929
aV21
p930
aI12698
aa(lp931
V13
p932
aV22
p933
aI11817
aa(lp934
V13
p935
aV23
p936
aI10407
aa(lp937
V14
p938
aV00
p939
aI8899
aa(lp940
V14
p941
aV01
p942
aI8073
aa(lp943
V14
p944
aV02
p945
aI7636
aa(lp946
V14
p947
aV03
p948
aI7896
aa(lp949
V14
p950
aV04
p951
aI10860
aa(lp952
V14
p953
aV05
p954
aI17939
aa(lp955
V14
p956
aV06
p957
aI21258
aa(lp958
V14
p959
aV07
p960
aI19692
aa(lp961
V14
p962
aV08
p963
aI17518
aa(lp964
V14
p965
aV09
p966
aI15900
aa(lp967
V14
p968
aV10
p969
aI15751
aa(lp970
V14
p971
aV11
p972
aI16987
aa(lp973
V14
p974
aV12
p975
aI16807
aa(lp976
V14
p977
aV13
p978
aI16325
aa(lp979
V14
p980
aV14
p981
aI16791
aa(lp982
V14
p983
aV15
p984
aI17807
aa(lp985
V14
p986
aV16
p987
aI19204
aa(lp988
V14
p989
aV17
p990
aI19527
aa(lp991
V14
p992
aV18
p993
aI17629
aa(lp994
V14
p995
aV19
p996
aI15052
aa(lp997
V14
p998
aV20
p999
aI13420
aa(lp1000
V14
p1001
aV21
p1002
aI12765
aa(lp1003
V14
p1004
aV22
p1005
aI11949
aa(lp1006
V14
p1007
aV23
p1008
aI10520
aa(lp1009
V15
p1010
aV00
p1011
aI9139
aa(lp1012
V15
p1013
aV01
p1014
aI8217
aa(lp1015
V15
p1016
aV02
p1017
aI7605
aa(lp1018
V15
p1019
aV03
p1020
aI7837
aa(lp1021
V15
p1022
aV04
p1023
aI10769
aa(lp1024
V15
p1025
aV05
p1026
aI17914
aa(lp1027
V15
p1028
aV06
p1029
aI21288
aa(lp1030
V15
p1031
aV07
p1032
aI19571
aa(lp1033
V15
p1034
aV08
p1035
aI17376
aa(lp1036
V15
p1037
aV09
p1038
aI15674
aa(lp1039
V15
p1040
aV10
p1041
aI15600
aa(lp1042
V15
p1043
aV11
p1044
aI16674
aa(lp1045
V15
p1046
aV12
p1047
aI16599
aa(lp1048
V15
p1049
aV13
p1050
aI16257
aa(lp1051
V15
p1052
aV14
p1053
aI16644
aa(lp1054
V15
p1055
aV15
p1056
aI17615
aa(lp1057
V15
p1058
aV16
p1059
aI19084
aa(lp1060
V15
p1061
aV17
p1062
aI19282
aa(lp1063
V15
p1064
aV18
p1065
aI17591
aa(lp1066
V15
p1067
aV19
p1068
aI15032
aa(lp1069
V15
p1070
aV20
p1071
aI13424
aa(lp1072
V15
p1073
aV21
p1074
aI12707
aa(lp1075
V15
p1076
aV22
p1077
aI11906
aa(lp1078
V15
p1079
aV23
p1080
aI10467
aa(lp1081
V16
p1082
aV00
p1083
aI9122
aa(lp1084
V16
p1085
aV01
p1086
aI8249
aa(lp1087
V16
p1088
aV02
p1089
aI7742
aa(lp1090
V16
p1091
aV03
p1092
aI7905
aa(lp1093
V16
p1094
aV04
p1095
aI10652
aa(lp1096
V16
p1097
aV05
p1098
aI17629
aa(lp1099
V16
p1100
aV06
p1101
aI21337
aa(lp1102
V16
p1103
aV07
p1104
aI20145
aa(lp1105
V16
p1106
aV08
p1107
aI18263
aa(lp1108
V16
p1109
aV09
p1110
aI16497
aa(lp1111
V16
p1112
aV10
p1113
aI16440
aa(lp1114
V16
p1115
aV11
p1116
aI17396
aa(lp1117
V16
p1118
aV12
p1119
aI17315
aa(lp1120
V16
p1121
aV13
p1122
aI17128
aa(lp1123
V16
p1124
aV14
p1125
aI17422
aa(lp1126
V16
p1127
aV15
p1128
aI18770
aa(lp1129
V16
p1130
aV16
p1131
aI19686
aa(lp1132
V16
p1133
aV17
p1134
aI19535
aa(lp1135
V16
p1136
aV18
p1137
aI17576
aa(lp1138
V16
p1139
aV19
p1140
aI15107
aa(lp1141
V16
p1142
aV20
p1143
aI13251
aa(lp1144
V16
p1145
aV21
p1146
aI12897
aa(lp1147
V16
p1148
aV22
p1149
aI12406
aa(lp1150
V16
p1151
aV23
p1152
aI11295
aa(lp1153
V17
p1154
aV00
p1155
aI9684
aa(lp1156
V17
p1157
aV01
p1158
aI8593
aa(lp1159
V17
p1160
aV02
p1161
aI7933
aa(lp1162
V17
p1163
aV03
p1164
aI7666
aa(lp1165
V17
p1166
aV04
p1167
aI7852
aa(lp1168
V17
p1169
aV05
p1170
aI9422
aa(lp1171
V17
p1172
aV06
p1173
aI13571
aa(lp1174
V17
p1175
aV07
p1176
aI19856
aa(lp1177
V17
p1178
aV08
p1179
aI23188
aa(lp1180
V17
p1181
aV09
p1182
aI22416
aa(lp1183
V17
p1184
aV10
p1185
aI21009
aa(lp1186
V17
p1187
aV11
p1188
aI20339
aa(lp1189
V17
p1190
aV12
p1191
aI19090
aa(lp1192
V17
p1193
aV13
p1194
aI18371
aa(lp1195
V17
p1196
aV14
p1197
aI18934
aa(lp1198
V17
p1199
aV15
p1200
aI19897
aa(lp1201
V17
p1202
aV16
p1203
aI20898
aa(lp1204
V17
p1205
aV17
p1206
aI20714
aa(lp1207
V17
p1208
aV18
p1209
aI18821
aa(lp1210
V17
p1211
aV19
p1212
aI16268
aa(lp1213
V17
p1214
aV20
p1215
aI14184
aa(lp1216
V17
p1217
aV21
p1218
aI13560
aa(lp1219
V17
p1220
aV22
p1221
aI12939
aa(lp1222
V17
p1223
aV23
p1224
aI11702
aa(lp1225
V18
p1226
aV00
p1227
aI10267
aa(lp1228
V18
p1229
aV01
p1230
aI9076
aa(lp1231
V18
p1232
aV02
p1233
aI8118
aa(lp1234
V18
p1235
aV03
p1236
aI7598
aa(lp1237
V18
p1238
aV04
p1239
aI7489
aa(lp1240
V18
p1241
aV05
p1242
aI8166
aa(lp1243
V18
p1244
aV06
p1245
aI11117
aa(lp1246
V18
p1247
aV07
p1248
aI16826
aa(lp1249
V18
p1250
aV08
p1251
aI21769
aa(lp1252
V18
p1253
aV09
p1254
aI22583
aa(lp1255
V18
p1256
aV10
p1257
aI21581
aa(lp1258
V18
p1259
aV11
p1260
aI20365
aa(lp1261
V18
p1262
aV12
p1263
aI18720
aa(lp1264
V18
p1265
aV13
p1266
aI17590
aa(lp1267
V18
p1268
aV14
p1269
aI17248
aa(lp1270
V18
p1271
aV15
p1272
aI17602
aa(lp1273
V18
p1274
aV16
p1275
aI18557
aa(lp1276
V18
p1277
aV17
p1278
aI18818
aa(lp1279
V18
p1280
aV18
p1281
aI17250
aa(lp1282
V18
p1283
aV19
p1284
aI14652
aa(lp1285
V18
p1286
aV20
p1287
aI12689
aa(lp1288
V18
p1289
aV21
p1290
aI12412
aa(lp1291
V18
p1292
aV22
p1293
aI11439
aa(lp1294
V18
p1295
aV23
p1296
aI10058
aa(lp1297
V19
p1298
aV00
p1299
aI8769
aa(lp1300
V19
p1301
aV01
p1302
aI7925
aa(lp1303
V19
p1304
aV02
p1305
aI7489
aa(lp1306
V19
p1307
aV03
p1308
aI7667
aa(lp1309
V19
p1310
aV04
p1311
aI10537
aa(lp1312
V19
p1313
aV05
p1314
aI17378
aa(lp1315
V19
p1316
aV06
p1317
aI20663
aa(lp1318
V19
p1319
aV07
p1320
aI19400
aa(lp1321
V19
p1322
aV08
p1323
aI17757
aa(lp1324
V19
p1325
aV09
p1326
aI16306
aa(lp1327
V19
p1328
aV10
p1329
aI16238
aa(lp1330
V19
p1331
aV11
p1332
aI17169
aa(lp1333
V19
p1334
aV12
p1335
aI16883
aa(lp1336
V19
p1337
aV13
p1338
aI16446
aa(lp1339
V19
p1340
aV14
p1341
aI16913
aa(lp1342
V19
p1343
aV15
p1344
aI18133
aa(lp1345
V19
p1346
aV16
p1347
aI19602
aa(lp1348
V19
p1349
aV17
p1350
aI20091
aa(lp1351
V19
p1352
aV18
p1353
aI18294
aa(lp1354
V19
p1355
aV19
p1356
aI15412
aa(lp1357
V19
p1358
aV20
p1359
aI13702
aa(lp1360
V19
p1361
aV21
p1362
aI12918
aa(lp1363
V19
p1364
aV22
p1365
aI12018
aa(lp1366
V19
p1367
aV23
p1368
aI10682
aa(lp1369
V20
p1370
aV00
p1371
aI9315
aa(lp1372
V20
p1373
aV01
p1374
aI8380
aa(lp1375
V20
p1376
aV02
p1377
aI7800
aa(lp1378
V20
p1379
aV03
p1380
aI8026
aa(lp1381
V20
p1382
aV04
p1383
aI10834
aa(lp1384
V20
p1385
aV05
p1386
aI17965
aa(lp1387
V20
p1388
aV06
p1389
aI21359
aa(lp1390
V20
p1391
aV07
p1392
aI20108
aa(lp1393
V20
p1394
aV08
p1395
aI18090
aa(lp1396
V20
p1397
aV09
p1398
aI16398
aa(lp1399
V20
p1400
aV10
p1401
aI16307
aa(lp1402
V20
p1403
aV11
p1404
aI17297
aa(lp1405
V20
p1406
aV12
p1407
aI16888
aa(lp1408
V20
p1409
aV13
p1410
aI16564
aa(lp1411
V20
p1412
aV14
p1413
aI17116
aa(lp1414
V20
p1415
aV15
p1416
aI18370
aa(lp1417
V20
p1418
aV16
p1419
aI19891
aa(lp1420
V20
p1421
aV17
p1422
aI20196
aa(lp1423
V20
p1424
aV18
p1425
aI18189
aa(lp1426
V20
p1427
aV19
p1428
aI15565
aa(lp1429
V20
p1430
aV20
p1431
aI13852
aa(lp1432
V20
p1433
aV21
p1434
aI13258
aa(lp1435
V20
p1436
aV22
p1437
aI12356
aa(lp1438
V20
p1439
aV23
p1440
aI10900
aa(lp1441
V21
p1442
aV00
p1443
aI9460
aa(lp1444
V21
p1445
aV01
p1446
aI8482
aa(lp1447
V21
p1448
aV02
p1449
aI7927
aa(lp1450
V21
p1451
aV03
p1452
aI8034
aa(lp1453
V21
p1454
aV04
p1455
aI10666
aa(lp1456
V21
p1457
aV05
p1458
aI17276
aa(lp1459
V21
p1460
aV06
p1461
aI20713
aa(lp1462
V21
p1463
aV07
p1464
aI20145
aa(lp1465
V21
p1466
aV08
p1467
aI18728
aa(lp1468
V21
p1469
aV09
p1470
aI17190
aa(lp1471
V21
p1472
aV10
p1473
aI16946
aa(lp1474
V21
p1475
aV11
p1476
aI17811
aa(lp1477
V21
p1478
aV12
p1479
aI17528
aa(lp1480
V21
p1481
aV13
p1482
aI17213
aa(lp1483
V21
p1484
aV14
p1485
aI17641
aa(lp1486
V21
p1487
aV15
p1488
aI19031
aa(lp1489
V21
p1490
aV16
p1491
aI20302
aa(lp1492
V21
p1493
aV17
p1494
aI20523
aa(lp1495
V21
p1496
aV18
p1497
aI18577
aa(lp1498
V21
p1499
aV19
p1500
aI15801
aa(lp1501
V21
p1502
aV20
p1503
aI14155
aa(lp1504
V21
p1505
aV21
p1506
aI13541
aa(lp1507
V21
p1508
aV22
p1509
aI12535
aa(lp1510
V21
p1511
aV23
p1512
aI10974
aa(lp1513
V22
p1514
aV00
p1515
aI9483
aa(lp1516
V22
p1517
aV01
p1518
aI8631
aa(lp1519
V22
p1520
aV02
p1521
aI8085
aa(lp1522
V22
p1523
aV03
p1524
aI8160
aa(lp1525
V22
p1526
aV04
p1527
aI10464
aa(lp1528
V22
p1529
aV05
p1530
aI16633
aa(lp1531
V22
p1532
aV06
p1533
aI20440
aa(lp1534
V22
p1535
aV07
p1536
aI20379
aa(lp1537
V22
p1538
aV08
p1539
aI19223
aa(lp1540
V22
p1541
aV09
p1542
aI17949
aa(lp1543
V22
p1544
aV10
p1545
aI17556
aa(lp1546
V22
p1547
aV11
p1548
aI18295
aa(lp1549
V22
p1550
aV12
p1551
aI17931
aa(lp1552
V22
p1553
aV13
p1554
aI17592
aa(lp1555
V22
p1556
aV14
p1557
aI18075
aa(lp1558
V22
p1559
aV15
p1560
aI19421
aa(lp1561
V22
p1562
aV16
p1563
aI20624
aa(lp1564
V22
p1565
aV17
p1566
aI20782
aa(lp1567
V22
p1568
aV18
p1569
aI19074
aa(lp1570
V22
p1571
aV19
p1572
aI16414
aa(lp1573
V22
p1574
aV20
p1575
aI14507
aa(lp1576
V22
p1577
aV21
p1578
aI13929
aa(lp1579
V22
p1580
aV22
p1581
aI13084
aa(lp1582
V22
p1583
aV23
p1584
aI11459
aa(lp1585
V23
p1586
aV00
p1587
aI9966
aa(lp1588
V23
p1589
aV01
p1590
aI8742
aa(lp1591
V23
p1592
aV02
p1593
aI8191
aa(lp1594
V23
p1595
aV03
p1596
aI8105
aa(lp1597
V23
p1598
aV04
p1599
aI9885
aa(lp1600
V23
p1601
aV05
p1602
aI14683
aa(lp1603
V23
p1604
aV06
p1605
aI18612
aa(lp1606
V23
p1607
aV07
p1608
aI20927
aa(lp1609
V23
p1610
aV08
p1611
aI21242
aa(lp1612
V23
p1613
aV09
p1614
aI20275
aa(lp1615
V23
p1616
aV10
p1617
aI19967
aa(lp1618
V23
p1619
aV11
p1620
aI20414
aa(lp1621
V23
p1622
aV12
p1623
aI20084
aa(lp1624
V23
p1625
aV13
p1626
aI19788
aa(lp1627
V23
p1628
aV14
p1629
aI20332
aa(lp1630
V23
p1631
aV15
p1632
aI21501
aa(lp1633
V23
p1634
aV16
p1635
aI22427
aa(lp1636
V23
p1637
aV17
p1638
aI22241
aa(lp1639
V23
p1640
aV18
p1641
aI19999
aa(lp1642
V23
p1643
aV19
p1644
aI17167
aa(lp1645
V23
p1646
aV20
p1647
aI15279
aa(lp1648
V23
p1649
aV21
p1650
aI14650
aa(lp1651
V23
p1652
aV22
p1653
aI13774
aa(lp1654
V23
p1655
aV23
p1656
aI12207
aa(lp1657
V24
p1658
aV00
p1659
aI10530
aa(lp1660
V24
p1661
aV01
p1662
aI9355
aa(lp1663
V24
p1664
aV02
p1665
aI8561
aa(lp1666
V24
p1667
aV03
p1668
aI8163
aa(lp1669
V24
p1670
aV04
p1671
aI8138
aa(lp1672
V24
p1673
aV05
p1674
aI9609
aa(lp1675
V24
p1676
aV06
p1677
aI13822
aa(lp1678
V24
p1679
aV07
p1680
aI20167
aa(lp1681
V24
p1682
aV08
p1683
aI24479
aa(lp1684
V24
p1685
aV09
p1686
aI24771
aa(lp1687
V24
p1688
aV10
p1689
aI23779
aa(lp1690
V24
p1691
aV11
p1692
aI23245
aa(lp1693
V24
p1694
aV12
p1695
aI22225
aa(lp1696
V24
p1697
aV13
p1698
aI21841
aa(lp1699
V24
p1700
aV14
p1701
aI21822
aa(lp1702
V24
p1703
aV15
p1704
aI22475
aa(lp1705
V24
p1706
aV16
p1707
aI22937
aa(lp1708
V24
p1709
aV17
p1710
aI22364
aa(lp1711
V24
p1712
aV18
p1713
aI20378
aa(lp1714
V24
p1715
aV19
p1716
aI18351
aa(lp1717
V24
p1718
aV20
p1719
aI16773
aa(lp1720
V24
p1721
aV21
p1722
aI15675
aa(lp1723
V24
p1724
aV22
p1725
aI14806
aa(lp1726
V24
p1727
aV23
p1728
aI13295
aa(lp1729
V25
p1730
aV00
p1731
aI11591
aa(lp1732
V25
p1733
aV01
p1734
aI10222
aa(lp1735
V25
p1736
aV02
p1737
aI9383
aa(lp1738
V25
p1739
aV03
p1740
aI8740
aa(lp1741
V25
p1742
aV04
p1743
aI8438
aa(lp1744
V25
p1745
aV05
p1746
aI8608
aa(lp1747
V25
p1748
aV06
p1749
aI10597
aa(lp1750
V25
p1751
aV07
p1752
aI15299
aa(lp1753
V25
p1754
aV08
p1755
aI20035
aa(lp1756
V25
p1757
aV09
p1758
aI21441
aa(lp1759
V25
p1760
aV10
p1761
aI20506
aa(lp1762
V25
p1763
aV11
p1764
aI18851
aa(lp1765
V25
p1766
aV12
p1767
aI17520
aa(lp1768
V25
p1769
aV13
p1770
aI17351
aa(lp1771
V25
p1772
aV14
p1773
aI17451
aa(lp1774
V25
p1775
aV15
p1776
aI17885
aa(lp1777
V25
p1778
aV16
p1779
aI18228
aa(lp1780
V25
p1781
aV17
p1782
aI18165
aa(lp1783
V25
p1784
aV18
p1785
aI17029
aa(lp1786
V25
p1787
aV19
p1788
aI15097
aa(lp1789
V25
p1790
aV20
p1791
aI13428
aa(lp1792
V25
p1793
aV21
p1794
aI12687
aa(lp1795
V25
p1796
aV22
p1797
aI11948
aa(lp1798
V25
p1799
aV23
p1800
aI10643
aa(lp1801
V26
p1802
aV00
p1803
aI9300
aa(lp1804
V26
p1805
aV01
p1806
aI8161
aa(lp1807
V26
p1808
aV02
p1809
aI7506
aa(lp1810
V26
p1811
aV03
p1812
aI7121
aa(lp1813
V26
p1814
aV04
p1815
aI7301
aa(lp1816
V26
p1817
aV05
p1818
aI8270
aa(lp1819
V26
p1820
aV06
p1821
aI10465
aa(lp1822
V26
p1823
aV07
p1824
aI15165
aa(lp1825
V26
p1826
aV08
p1827
aI19363
aa(lp1828
V26
p1829
aV09
p1830
aI20201
aa(lp1831
V26
p1832
aV10
p1833
aI19213
aa(lp1834
V26
p1835
aV11
p1836
aI18017
aa(lp1837
V26
p1838
aV12
p1839
aI16056
aa(lp1840
V26
p1841
aV13
p1842
aI14662
aa(lp1843
V26
p1844
aV14
p1845
aI14659
aa(lp1846
V26
p1847
aV15
p1848
aI14855
aa(lp1849
V26
p1850
aV16
p1851
aI15673
aa(lp1852
V26
p1853
aV17
p1854
aI15913
aa(lp1855
V26
p1856
aV18
p1857
aI14732
aa(lp1858
V26
p1859
aV19
p1860
aI12908
aa(lp1861
V26
p1862
aV20
p1863
aI11583
aa(lp1864
V26
p1865
aV21
p1866
aI11144
aa(lp1867
V26
p1868
aV22
p1869
aI10668
aa(lp1870
V26
p1871
aV23
p1872
aI9518
aa(lp1873
V27
p1874
aV00
p1875
aI8264
aa(lp1876
V27
p1877
aV01
p1878
aI7352
aa(lp1879
V27
p1880
aV02
p1881
aI6870
aa(lp1882
V27
p1883
aV03
p1884
aI6831
aa(lp1885
V27
p1886
aV04
p1887
aI7864
aa(lp1888
V27
p1889
aV05
p1890
aI10321
aa(lp1891
V27
p1892
aV06
p1893
aI13405
aa(lp1894
V27
p1895
aV07
p1896
aI16933
aa(lp1897
V27
p1898
aV08
p1899
aI19131
aa(lp1900
V27
p1901
aV09
p1902
aI18608
aa(lp1903
V27
p1904
aV10
p1905
aI17866
aa(lp1906
V27
p1907
aV11
p1908
aI17651
aa(lp1909
V27
p1910
aV12
p1911
aI16496
aa(lp1912
V27
p1913
aV13
p1914
aI15652
aa(lp1915
V27
p1916
aV14
p1917
aI15854
aa(lp1918
V27
p1919
aV15
p1920
aI16524
aa(lp1921
V27
p1922
aV16
p1923
aI17667
aa(lp1924
V27
p1925
aV17
p1926
aI17654
aa(lp1927
V27
p1928
aV18
p1929
aI15766
aa(lp1930
V27
p1931
aV19
p1932
aI13427
aa(lp1933
V27
p1934
aV20
p1935
aI11877
aa(lp1936
V27
p1937
aV21
p1938
aI11544
aa(lp1939
V27
p1940
aV22
p1941
aI10980
aa(lp1942
V27
p1943
aV23
p1944
aI9681
aa(lp1945
V28
p1946
aV00
p1947
aI8466
aa(lp1948
V28
p1949
aV01
p1950
aI7490
aa(lp1951
V28
p1952
aV02
p1953
aI6952
aa(lp1954
V28
p1955
aV03
p1956
aI6868
aa(lp1957
V28
p1958
aV04
p1959
aI7947
aa(lp1960
V28
p1961
aV05
p1962
aI10560
aa(lp1963
V28
p1964
aV06
p1965
aI13692
aa(lp1966
V28
p1967
aV07
p1968
aI17484
aa(lp1969
V28
p1970
aV08
p1971
aI19441
aa(lp1972
V28
p1973
aV09
p1974
aI18856
aa(lp1975
V28
p1976
aV10
p1977
aI18020
aa(lp1978
V28
p1979
aV11
p1980
aI17854
aa(lp1981
V28
p1982
aV12
p1983
aI16781
aa(lp1984
V28
p1985
aV13
p1986
aI15891
aa(lp1987
V28
p1988
aV14
p1989
aI15921
aa(lp1990
V28
p1991
aV15
p1992
aI16831
aa(lp1993
V28
p1994
aV16
p1995
aI17682
aa(lp1996
V28
p1997
aV17
p1998
aI17633
aa(lp1999
V28
p2000
aV18
p2001
aI15848
aa(lp2002
V28
p2003
aV19
p2004
aI13613
aa(lp2005
V28
p2006
aV20
p2007
aI11999
aa(lp2008
V28
p2009
aV21
p2010
aI11557
aa(lp2011
V28
p2012
aV22
p2013
aI11124
aa(lp2014
V28
p2015
aV23
p2016
aI9735
aa(lp2017
V29
p2018
aV00
p2019
aI8441
aa(lp2020
V29
p2021
aV01
p2022
aI7526
aa(lp2023
V29
p2024
aV02
p2025
aI7057
aa(lp2026
V29
p2027
aV03
p2028
aI6997
aa(lp2029
V29
p2030
aV04
p2031
aI8045
aa(lp2032
V29
p2033
aV05
p2034
aI10702
aa(lp2035
V29
p2036
aV06
p2037
aI13966
aa(lp2038
V29
p2039
aV07
p2040
aI17742
aa(lp2041
V29
p2042
aV08
p2043
aI19523
aa(lp2044
V29
p2045
aV09
p2046
aI18698
aa(lp2047
V29
p2048
aV10
p2049
aI17945
aa(lp2050
V29
p2051
aV11
p2052
aI17766
aa(lp2053
V29
p2054
aV12
p2055
aI16694
aa(lp2056
V29
p2057
aV13
p2058
aI15895
aa(lp2059
V29
p2060
aV14
p2061
aI15926
aa(lp2062
V29
p2063
aV15
p2064
aI16775
aa(lp2065
V29
p2066
aV16
p2067
aI17871
aa(lp2068
V29
p2069
aV17
p2070
aI18075
aa(lp2071
V29
p2072
aV18
p2073
aI16342
aa(lp2074
V29
p2075
aV19
p2076
aI13896
aa(lp2077
V29
p2078
aV20
p2079
aI12294
aa(lp2080
V29
p2081
aV21
p2082
aI11726
aa(lp2083
V29
p2084
aV22
p2085
aI11308
aa(lp2086
V29
p2087
aV23
p2088
aI9985
aa(lp2089
V30
p2090
aV00
p2091
aI8609
aa(lp2092
V30
p2093
aV01
p2094
aI7630
aa(lp2095
V30
p2096
aV02
p2097
aI7150
aa(lp2098
V30
p2099
aV03
p2100
aI7105
aa(lp2101
V30
p2102
aV04
p2103
aI7991
aa(lp2104
V30
p2105
aV05
p2106
aI10342
aa(lp2107
V30
p2108
aV06
p2109
aI13768
aa(lp2110
V30
p2111
aV07
p2112
aI17804
aa(lp2113
V30
p2114
aV08
p2115
aI20039
aa(lp2116
V30
p2117
aV09
p2118
aI19539
aa(lp2119
V30
p2120
aV10
p2121
aI18645
aa(lp2122
V30
p2123
aV11
p2124
aI18426
aa(lp2125
V30
p2126
aV12
p2127
aI17383
aa(lp2128
V30
p2129
aV13
p2130
aI16473
aa(lp2131
V30
p2132
aV14
p2133
aI16554
aa(lp2134
V30
p2135
aV15
p2136
aI17344
aa(lp2137
V30
p2138
aV16
p2139
aI18342
aa(lp2140
V30
p2141
aV17
p2142
aI18515
aa(lp2143
V30
p2144
aV18
p2145
aI16825
aa(lp2146
V30
p2147
aV19
p2148
aI14305
aa(lp2149
V30
p2150
aV20
p2151
aI12404
aa(lp2152
V30
p2153
aV21
p2154
aI12043
aa(lp2155
V30
p2156
aV22
p2157
aI11378
aa(lp2158
V30
p2159
aV23
p2160
aI10178
aa(lp2161
V31
p2162
aV00
p2163
aI8726
aa(lp2164
V31
p2165
aV01
p2166
aI7705
aa(lp2167
V31
p2168
aV02
p2169
aI7088
aa(lp2170
V31
p2171
aV03
p2172
aI6866
aa(lp2173
V31
p2174
aV04
p2175
aI7021
aa(lp2176
V31
p2177
aV05
p2178
aI8040
aa(lp2179
V31
p2180
aV06
p2181
aI11095
aa(lp2182
V31
p2183
aV07
p2184
aI16526
aa(lp2185
V31
p2186
aV08
p2187
aI20827
aa(lp2188
V31
p2189
aV09
p2190
aI21773
aa(lp2191
V31
p2192
aV10
p2193
aI21300
aa(lp2194
V31
p2195
aV11
p2196
aI20797
aa(lp2197
V31
p2198
aV12
p2199
aI19622
aa(lp2200
V31
p2201
aV13
p2202
aI18648
aa(lp2203
V31
p2204
aV14
p2205
aI18857
aa(lp2206
V31
p2207
aV15
p2208
aI20029
aa(lp2209
V31
p2210
aV16
p2211
aI21022
aa(lp2212
V31
p2213
aV17
p2214
aI20477
aa(lp2215
V31
p2216
aV18
p2217
aI18585
aa(lp2218
V31
p2219
aV19
p2220
aI16342
aa(lp2221
V31
p2222
aV20
p2223
aI14861
aa(lp2224
V31
p2225
aV21
p2226
aI13982
aa(lp2227
V31
p2228
aV22
p2229
aI13804
aa(lp2230
V31
p2231
aV23
p2232
aI13393
aa.