(lp0
(lp1
V01
p2
aV00
p3
aI4945
aa(lp4
V01
p5
aV01
p6
aI4616
aa(lp7
V01
p8
aV02
p9
aI4475
aa(lp10
V01
p11
aV03
p12
aI4946
aa(lp13
V01
p14
aV04
p15
aI6269
aa(lp16
V01
p17
aV05
p18
aI10170
aa(lp19
V01
p20
aV06
p21
aI15553
aa(lp22
V01
p23
aV07
p24
aI18743
aa(lp25
V01
p26
aV08
p27
aI18667
aa(lp28
V01
p29
aV09
p30
aI17301
aa(lp31
V01
p32
aV10
p33
aI16149
aa(lp34
V01
p35
aV11
p36
aI14275
aa(lp37
V01
p38
aV12
p39
aI12397
aa(lp40
V01
p41
aV13
p42
aI11578
aa(lp43
V01
p44
aV14
p45
aI11733
aa(lp46
V01
p47
aV15
p48
aI12343
aa(lp49
V01
p50
aV16
p51
aI12959
aa(lp52
V01
p53
aV17
p54
aI11993
aa(lp55
V01
p56
aV18
p57
aI9930
aa(lp58
V01
p59
aV19
p60
aI8318
aa(lp61
V01
p62
aV20
p63
aI7923
aa(lp64
V01
p65
aV21
p66
aI7075
aa(lp67
V01
p68
aV22
p69
aI5984
aa(lp70
V01
p71
aV23
p72
aI5201
aa(lp73
V02
p74
aV00
p75
aI4621
aa(lp76
V02
p77
aV01
p78
aI4528
aa(lp79
V02
p80
aV02
p81
aI5158
aa(lp82
V02
p83
aV03
p84
aI8553
aa(lp85
V02
p86
aV04
p87
aI16015
aa(lp88
V02
p89
aV05
p90
aI19394
aa(lp91
V02
p92
aV06
p93
aI17464
aa(lp94
V02
p95
aV07
p96
aI15117
aa(lp97
V02
p98
aV08
p99
aI13993
aa(lp100
V02
p101
aV09
p102
aI13943
aa(lp103
V02
p104
aV10
p105
aI14745
aa(lp106
V02
p107
aV11
p108
aI14075
aa(lp109
V02
p110
aV12
p111
aI12901
aa(lp112
V02
p113
aV13
p114
aI12490
aa(lp115
V02
p116
aV14
p117
aI12915
aa(lp118
V02
p119
aV15
p120
aI13750
aa(lp121
V02
p122
aV16
p123
aI14386
aa(lp124
V02
p125
aV17
p126
aI13303
aa(lp127
V02
p128
aV18
p129
aI11162
aa(lp130
V02
p131
aV19
p132
aI9310
aa(lp133
V02
p134
aV20
p135
aI8567
aa(lp136
V02
p137
aV21
p138
aI7638
aa(lp139
V02
p140
aV22
p141
aI6368
aa(lp142
V02
p143
aV23
p144
aI5231
aa(lp145
V03
p146
aV00
p147
aI4804
aa(lp148
V03
p149
aV01
p150
aI4669
aa(lp151
V03
p152
aV02
p153
aI5391
aa(lp154
V03
p155
aV03
p156
aI8720
aa(lp157
V03
p158
aV04
p159
aI16353
aa(lp160
V03
p161
aV05
p162
aI19851
aa(lp163
V03
p164
aV06
p165
aI17782
aa(lp166
V03
p167
aV07
p168
aI15366
aa(lp169
V03
p170
aV08
p171
aI13817
aa(lp172
V03
p173
aV09
p174
aI13950
aa(lp175
V03
p176
aV10
p177
aI14899
aa(lp178
V03
p179
aV11
p180
aI14227
aa(lp181
V03
p182
aV12
p183
aI13116
aa(lp184
V03
p185
aV13
p186
aI12905
aa(lp187
V03
p188
aV14
p189
aI13358
aa(lp190
V03
p191
aV15
p192
aI14171
aa(lp193
V03
p194
aV16
p195
aI14706
aa(lp196
V03
p197
aV17
p198
aI13396
aa(lp199
V03
p200
aV18
p201
aI11007
aa(lp202
V03
p203
aV19
p204
aI8983
aa(lp205
V03
p206
aV20
p207
aI8494
aa(lp208
V03
p209
aV21
p210
aI7778
aa(lp211
V03
p212
aV22
p213
aI6551
aa(lp214
V03
p215
aV23
p216
aI5450
aa(lp217
V04
p218
aV00
p219
aI4842
aa(lp220
V04
p221
aV01
p222
aI4719
aa(lp223
V04
p224
aV02
p225
aI5284
aa(lp226
V04
p227
aV03
p228
aI8618
aa(lp229
V04
p230
aV04
p231
aI16060
aa(lp232
V04
p233
aV05
p234
aI19650
aa(lp235
V04
p236
aV06
p237
aI17980
aa(lp238
V04
p239
aV07
p240
aI15481
aa(lp241
V04
p242
aV08
p243
aI13786
aa(lp244
V04
p245
aV09
p246
aI13697
aa(lp247
V04
p248
aV10
p249
aI14576
aa(lp250
V04
p251
aV11
p252
aI14039
aa(lp253
V04
p254
aV12
p255
aI13003
aa(lp256
V04
p257
aV13
p258
aI12683
aa(lp259
V04
p260
aV14
p261
aI12969
aa(lp262
V04
p263
aV15
p264
aI13649
aa(lp265
V04
p266
aV16
p267
aI14379
aa(lp268
V04
p269
aV17
p270
aI13221
aa(lp271
V04
p272
aV18
p273
aI11292
aa(lp274
V04
p275
aV19
p276
aI9187
aa(lp277
V04
p278
aV20
p279
aI8512
aa(lp280
V04
p281
aV21
p282
aI7990
aa(lp283
V04
p284
aV22
p285
aI6768
aa(lp286
V04
p287
aV23
p288
aI5558
aa(lp289
V05
p290
aV00
p291
aI4957
aa(lp292
V05
p293
aV01
p294
aI4711
aa(lp295
V05
p296
aV02
p297
aI4871
aa(lp298
V05
p299
aV03
p300
aI5719
aa(lp301
V05
p302
aV04
p303
aI8172
aa(lp304
V05
p305
aV05
p306
aI12919
aa(lp307
V05
p308
aV06
p309
aI18172
aa(lp310
V05
p311
aV07
p312
aI19751
aa(lp313
V05
p314
aV08
p315
aI18430
aa(lp316
V05
p317
aV09
p318
aI16997
aa(lp319
V05
p320
aV10
p321
aI16087
aa(lp322
V05
p323
aV11
p324
aI14710
aa(lp325
V05
p326
aV12
p327
aI13158
aa(lp328
V05
p329
aV13
p330
aI12300
aa(lp331
V05
p332
aV14
p333
aI12180
aa(lp334
V05
p335
aV15
p336
aI12533
aa(lp337
V05
p338
aV16
p339
aI12886
aa(lp340
V05
p341
aV17
p342
aI12314
aa(lp343
V05
p344
aV18
p345
aI10483
aa(lp346
V05
p347
aV19
p348
aI8871
aa(lp349
V05
p350
aV20
p351
aI8184
aa(lp352
V05
p353
aV21
p354
aI7522
aa(lp355
V05
p356
aV22
p357
aI6341
aa(lp358
V05
p359
aV23
p360
aI5306
aa(lp361
V06
p362
aV00
p363
aI4832
aa(lp364
V06
p365
aV01
p366
aI4717
aa(lp367
V06
p368
aV02
p369
aI4985
aa(lp370
V06
p371
aV03
p372
aI6649
aa(lp373
V06
p374
aV04
p375
aI10876
aa(lp376
V06
p377
aV05
p378
aI15502
aa(lp379
V06
p380
aV06
p381
aI17857
aa(lp382
V06
p383
aV07
p384
aI17130
aa(lp385
V06
p386
aV08
p387
aI15256
aa(lp388
V06
p389
aV09
p390
aI14468
aa(lp391
V06
p392
aV10
p393
aI14827
aa(lp394
V06
p395
aV11
p396
aI14085
aa(lp397
V06
p398
aV12
p399
aI13073
aa(lp400
V06
p401
aV13
p402
aI12617
aa(lp403
V06
p404
aV14
p405
aI12623
aa(lp406
V06
p407
aV15
p408
aI12996
aa(lp409
V06
p410
aV16
p411
aI13308
aa(lp412
V06
p413
aV17
p414
aI12452
aa(lp415
V06
p416
aV18
p417
aI10695
aa(lp418
V06
p419
aV19
p420
aI9073
aa(lp421
V06
p422
aV20
p423
aI8191
aa(lp424
V06
p425
aV21
p426
aI7507
aa(lp427
V06
p428
aV22
p429
aI6469
aa(lp430
V06
p431
aV23
p432
aI5490
aa(lp433
V07
p434
aV00
p435
aI4867
aa(lp436
V07
p437
aV01
p438
aI4605
aa(lp439
V07
p440
aV02
p441
aI4695
aa(lp442
V07
p443
aV03
p444
aI5263
aa(lp445
V07
p446
aV04
p447
aI7420
aa(lp448
V07
p449
aV05
p450
aI12306
aa(lp451
V07
p452
aV06
p453
aI17031
aa(lp454
V07
p455
aV07
p456
aI18252
aa(lp457
V07
p458
aV08
p459
aI16742
aa(lp460
V07
p461
aV09
p462
aI15523
aa(lp463
V07
p464
aV10
p465
aI14579
aa(lp466
V07
p467
aV11
p468
aI13512
aa(lp469
V07
p470
aV12
p471
aI12593
aa(lp472
V07
p473
aV13
p474
aI12428
aa(lp475
V07
p476
aV14
p477
aI12339
aa(lp478
V07
p479
aV15
p480
aI12718
aa(lp481
V07
p482
aV16
p483
aI12832
aa(lp484
V07
p485
aV17
p486
aI11993
aa(lp487
V07
p488
aV18
p489
aI10403
aa(lp490
V07
p491
aV19
p492
aI8859
aa(lp493
V07
p494
aV20
p495
aI7922
aa(lp496
V07
p497
aV21
p498
aI7186
aa(lp499
V07
p500
aV22
p501
aI6126
aa(lp502
V07
p503
aV23
p504
aI5208
aa(lp505
V08
p506
aV00
p507
aI4701
aa(lp508
V08
p509
aV01
p510
aI4413
aa(lp511
V08
p512
aV02
p513
aI4295
aa(lp514
V08
p515
aV03
p516
aI4656
aa(lp517
V08
p518
aV04
p519
aI6033
aa(lp520
V08
p521
aV05
p522
aI9838
aa(lp523
V08
p524
aV06
p525
aI14875
aa(lp526
V08
p527
aV07
p528
aI17240
aa(lp529
V08
p530
aV08
p531
aI16716
aa(lp532
V08
p533
aV09
p534
aI15366
aa(lp535
V08
p536
aV10
p537
aI14382
aa(lp538
V08
p539
aV11
p540
aI12942
aa(lp541
V08
p542
aV12
p543
aI11823
aa(lp544
V08
p545
aV13
p546
aI11148
aa(lp547
V08
p548
aV14
p549
aI11229
aa(lp550
V08
p551
aV15
p552
aI11583
aa(lp553
V08
p554
aV16
p555
aI12209
aa(lp556
V08
p557
aV17
p558
aI11669
aa(lp559
V08
p560
aV18
p561
aI9950
aa(lp562
V08
p563
aV19
p564
aI8488
aa(lp565
V08
p566
aV20
p567
aI7944
aa(lp568
V08
p569
aV21
p570
aI6960
aa(lp571
V08
p572
aV22
p573
aI5839
aa(lp574
V08
p575
aV23
p576
aI4891
aa(lp577
V09
p578
aV00
p579
aI4577
aa(lp580
V09
p581
aV01
p582
aI4471
aa(lp583
V09
p584
aV02
p585
aI5126
aa(lp586
V09
p587
aV03
p588
aI8437
aa(lp589
V09
p590
aV04
p591
aI15829
aa(lp592
V09
p593
aV05
p594
aI19197
aa(lp595
V09
p596
aV06
p597
aI17246
aa(lp598
V09
p599
aV07
p600
aI14853
aa(lp601
V09
p602
aV08
p603
aI13292
aa(lp604
V09
p605
aV09
p606
aI13207
aa(lp607
V09
p608
aV10
p609
aI14075
aa(lp610
V09
p611
aV11
p612
aI13391
aa(lp613
V09
p614
aV12
p615
aI12430
aa(lp616
V09
p617
aV13
p618
aI12173
aa(lp619
V09
p620
aV14
p621
aI12611
aa(lp622
V09
p623
aV15
p624
aI13439
aa(lp625
V09
p626
aV16
p627
aI14015
aa(lp628
V09
p629
aV17
p630
aI13062
aa(lp631
V09
p632
aV18
p633
aI10969
aa(lp634
V09
p635
aV19
p636
aI9290
aa(lp637
V09
p638
aV20
p639
aI8483
aa(lp640
V09
p641
aV21
p642
aI7566
aa(lp643
V09
p644
aV22
p645
aI6337
aa(lp646
V09
p647
aV23
p648
aI5228
aa(lp649
V10
p650
aV00
p651
aI4825
aa(lp652
V10
p653
aV01
p654
aI4677
aa(lp655
V10
p656
aV02
p657
aI5231
aa(lp658
V10
p659
aV03
p660
aI8649
aa(lp661
V10
p662
aV04
p663
aI16099
aa(lp664
V10
p665
aV05
p666
aI19861
aa(lp667
V10
p668
aV06
p669
aI17685
aa(lp670
V10
p671
aV07
p672
aI14956
aa(lp673
V10
p674
aV08
p675
aI13223
aa(lp676
V10
p677
aV09
p678
aI13275
aa(lp679
V10
p680
aV10
p681
aI14230
aa(lp682
V10
p683
aV11
p684
aI13701
aa(lp685
V10
p686
aV12
p687
aI12556
aa(lp688
V10
p689
aV13
p690
aI12300
aa(lp691
V10
p692
aV14
p693
aI12730
aa(lp694
V10
p695
aV15
p696
aI13550
aa(lp697
V10
p698
aV16
p699
aI14119
aa(lp700
V10
p701
aV17
p702
aI13063
aa(lp703
V10
p704
aV18
p705
aI11078
aa(lp706
V10
p707
aV19
p708
aI9343
aa(lp709
V10
p710
aV20
p711
aI8563
aa(lp712
V10
p713
aV21
p714
aI7583
aa(lp715
V10
p716
aV22
p717
aI6419
aa(lp718
V10
p719
aV23
p720
aI5322
aa(lp721
V11
p722
aV00
p723
aI4826
aa(lp724
V11
p725
aV01
p726
aI4775
aa(lp727
V11
p728
aV02
p729
aI5299
aa(lp730
V11
p731
aV03
p732
aI8609
aa(lp733
V11
p734
aV04
p735
aI16098
aa(lp736
V11
p737
aV05
p738
aI19669
aa(lp739
V11
p740
aV06
p741
aI17818
aa(lp742
V11
p743
aV07
p744
aI15241
aa(lp745
V11
p746
aV08
p747
aI13466
aa(lp748
V11
p749
aV09
p750
aI13464
aa(lp751
V11
p752
aV10
p753
aI14401
aa(lp754
V11
p755
aV11
p756
aI13771
aa(lp757
V11
p758
aV12
p759
aI12718
aa(lp760
V11
p761
aV13
p762
aI12416
aa(lp763
V11
p764
aV14
p765
aI12739
aa(lp766
V11
p767
aV15
p768
aI13479
aa(lp769
V11
p770
aV16
p771
aI14008
aa(lp772
V11
p773
aV17
p774
aI13019
aa(lp775
V11
p776
aV18
p777
aI11042
aa(lp778
V11
p779
aV19
p780
aI9406
aa(lp781
V11
p782
aV20
p783
aI8677
aa(lp784
V11
p785
aV21
p786
aI7663
aa(lp787
V11
p788
aV22
p789
aI6320
aa(lp790
V11
p791
aV23
p792
aI5286
aa(lp793
V12
p794
aV00
p795
aI4741
aa(lp796
V12
p797
aV01
p798
aI4687
aa(lp799
V12
p800
aV02
p801
aI5290
aa(lp802
V12
p803
aV03
p804
aI8587
aa(lp805
V12
p806
aV04
p807
aI16053
aa(lp808
V12
p809
aV05
p810
aI19693
aa(lp811
V12
p812
aV06
p813
aI17858
aa(lp814
V12
p815
aV07
p816
aI15328
aa(lp817
V12
p818
aV08
p819
aI13464
aa(lp820
V12
p821
aV09
p822
aI13442
aa(lp823
V12
p824
aV10
p825
aI14370
aa(lp826
V12
p827
aV11
p828
aI13738
aa(lp829
V12
p830
aV12
p831
aI12911
aa(lp832
V12
p833
aV13
p834
aI12524
aa(lp835
V12
p836
aV14
p837
aI13050
aa(lp838
V12
p839
aV15
p840
aI13814
aa(lp841
V12
p842
aV16
p843
aI14302
aa(lp844
V12
p845
aV17
p846
aI13319
aa(lp847
V12
p848
aV18
p849
aI11026
aa(lp850
V12
p851
aV19
p852
aI9275
aa(lp853
V12
p854
aV20
p855
aI8573
aa(lp856
V12
p857
aV21
p858
aI7667
aa(lp859
V12
p860
aV22
p861
aI6448
aa(lp862
V12
p863
aV23
p864
aI5372
aa(lp865
V13
p866
aV00
p867
aI4856
aa(lp868
V13
p869
aV01
p870
aI4732
aa(lp871
V13
p872
aV02
p873
aI5238
aa(lp874
V13
p875
aV03
p876
aI8465
aa(lp877
V13
p878
aV04
p879
aI15695
aa(lp880
V13
p881
aV05
p882
aI19569
aa(lp883
V13
p884
aV06
p885
aI18118
aa(lp886
V13
p887
aV07
p888
aI15904
aa(lp889
V13
p890
aV08
p891
aI14407
aa(lp892
V13
p893
aV09
p894
aI14108
aa(lp895
V13
p896
aV10
p897
aI14960
aa(lp898
V13
p899
aV11
p900
aI14301
aa(lp901
V13
p902
aV12
p903
aI13309
aa(lp904
V13
p905
aV13
p906
aI12856
aa(lp907
V13
p908
aV14
p909
aI13184
aa(lp910
V13
p911
aV15
p912
aI13932
aa(lp913
V13
p914
aV16
p915
aI14101
aa(lp916
V13
p917
aV17
p918
aI12951
aa(lp919
V13
p920
aV18
p921
aI10671
aa(lp922
V13
p923
aV19
p924
aI8880
aa(lp925
V13
p926
aV20
p927
aI8124
aa(lp928
V13
p929
aV21
p930
aI7679
aa(lp931
V13
p932
aV22
p933
aI6539
aa(lp934
V13
p935
aV23
p936
aI5423
aa(lp937
V14
p938
aV00
p939
aI4855
aa(lp940
V14
p941
aV01
p942
aI4679
aa(lp943
V14
p944
aV02
p945
aI4686
aa(lp946
V14
p947
aV03
p948
aI5333
aa(lp949
V14
p950
aV04
p951
aI7520
aa(lp952
V14
p953
aV05
p954
aI12502
aa(lp955
V14
p956
aV06
p957
aI17799
aa(lp958
V14
p959
aV07
p960
aI19544
aa(lp961
V14
p962
aV08
p963
aI18369
aa(lp964
V14
p965
aV09
p966
aI16980
aa(lp967
V14
p968
aV10
p969
aI16494
aa(lp970
V14
p971
aV11
p972
aI15099
aa(lp973
V14
p974
aV12
p975
aI13838
aa(lp976
V14
p977
aV13
p978
aI13272
aa(lp979
V14
p980
aV14
p981
aI13145
aa(lp982
V14
p983
aV15
p984
aI13539
aa(lp985
V14
p986
aV16
p987
aI13442
aa(lp988
V14
p989
aV17
p990
aI12371
aa(lp991
V14
p992
aV18
p993
aI10310
aa(lp994
V14
p995
aV19
p996
aI8095
aa(lp997
V14
p998
aV20
p999
aI7394
aa(lp1000
V14
p1001
aV21
p1002
aI6942
aa(lp1003
V14
p1004
aV22
p1005
aI6391
aa(lp1006
V14
p1007
aV23
p1008
aI5568
aa(lp1009
V15
p1010
aV00
p1011
aI4852
aa(lp1012
V15
p1013
aV01
p1014
aI4592
aa(lp1015
V15
p1016
aV02
p1017
aI4496
aa(lp1018
V15
p1019
aV03
p1020
aI4856
aa(lp1021
V15
p1022
aV04
p1023
aI6166
aa(lp1024
V15
p1025
aV05
p1026
aI9694
aa(lp1027
V15
p1028
aV06
p1029
aI14812
aa(lp1030
V15
p1031
aV07
p1032
aI17814
aa(lp1033
V15
p1034
aV08
p1035
aI17966
aa(lp1036
V15
p1037
aV09
p1038
aI16864
aa(lp1039
V15
p1040
aV10
p1041
aI15771
aa(lp1042
V15
p1043
aV11
p1044
aI14034
aa(lp1045
V15
p1046
aV12
p1047
aI12325
aa(lp1048
V15
p1049
aV13
p1050
aI11446
aa(lp1051
V15
p1052
aV14
p1053
aI11457
aa(lp1054
V15
p1055
aV15
p1056
aI11771
aa(lp1057
V15
p1058
aV16
p1059
aI12162
aa(lp1060
V15
p1061
aV17
p1062
aI11376
aa(lp1063
V15
p1064
aV18
p1065
aI9602
aa(lp1066
V15
p1067
aV19
p1068
aI8132
aa(lp1069
V15
p1070
aV20
p1071
aI7658
aa(lp1072
V15
p1073
aV21
p1074
aI7155
aa(lp1075
V15
p1076
aV22
p1077
aI6251
aa(lp1078
V15
p1079
aV23
p1080
aI5294
aa(lp1081
V16
p1082
aV00
p1083
aI4729
aa(lp1084
V16
p1085
aV01
p1086
aI4490
aa(lp1087
V16
p1088
aV02
p1089
aI4700
aa(lp1090
V16
p1091
aV03
p1092
aI5532
aa(lp1093
V16
p1094
aV04
p1095
aI7871
aa(lp1096
V16
p1097
aV05
p1098
aI11326
aa(lp1099
V16
p1100
aV06
p1101
aI15791
aa(lp1102
V16
p1103
aV07
p1104
aI18278
aa(lp1105
V16
p1106
aV08
p1107
aI17992
aa(lp1108
V16
p1109
aV09
p1110
aI17219
aa(lp1111
V16
p1112
aV10
p1113
aI16705
aa(lp1114
V16
p1115
aV11
p1116
aI15207
aa(lp1117
V16
p1118
aV12
p1119
aI13551
aa(lp1120
V16
p1121
aV13
p1122
aI12700
aa(lp1123
V16
p1124
aV14
p1125
aI12509
aa(lp1126
V16
p1127
aV15
p1128
aI12902
aa(lp1129
V16
p1130
aV16
p1131
aI13356
aa(lp1132
V16
p1133
aV17
p1134
aI12262
aa(lp1135
V16
p1136
aV18
p1137
aI10093
aa(lp1138
V16
p1139
aV19
p1140
aI8510
aa(lp1141
V16
p1142
aV20
p1143
aI8116
aa(lp1144
V16
p1145
aV21
p1146
aI7446
aa(lp1147
V16
p1148
aV22
p1149
aI6320
aa(lp1150
V16
p1151
aV23
p1152
aI5200
aa(lp1153
V17
p1154
aV00
p1155
aI4717
aa(lp1156
V17
p1157
aV01
p1158
aI4596
aa(lp1159
V17
p1160
aV02
p1161
aI5188
aa(lp1162
V17
p1163
aV03
p1164
aI8277
aa(lp1165
V17
p1166
aV04
p1167
aI14725
aa(lp1168
V17
p1169
aV05
p1170
aI18503
aa(lp1171
V17
p1172
aV06
p1173
aI17518
aa(lp1174
V17
p1175
aV07
p1176
aI15353
aa(lp1177
V17
p1178
aV08
p1179
aI13968
aa(lp1180
V17
p1181
aV09
p1182
aI13746
aa(lp1183
V17
p1184
aV10
p1185
aI14554
aa(lp1186
V17
p1187
aV11
p1188
aI13679
aa(lp1189
V17
p1190
aV12
p1191
aI12549
aa(lp1192
V17
p1193
aV13
p1194
aI12143
aa(lp1195
V17
p1196
aV14
p1197
aI12551
aa(lp1198
V17
p1199
aV15
p1200
aI13326
aa(lp1201
V17
p1202
aV16
p1203
aI14028
aa(lp1204
V17
p1205
aV17
p1206
aI12968
aa(lp1207
V17
p1208
aV18
p1209
aI10652
aa(lp1210
V17
p1211
aV19
p1212
aI9117
aa(lp1213
V17
p1214
aV20
p1215
aI8549
aa(lp1216
V17
p1217
aV21
p1218
aI7692
aa(lp1219
V17
p1220
aV22
p1221
aI6336
aa(lp1222
V17
p1223
aV23
p1224
aI5232
aa(lp1225
V18
p1226
aV00
p1227
aI4735
aa(lp1228
V18
p1229
aV01
p1230
aI4621
aa(lp1231
V18
p1232
aV02
p1233
aI5171
aa(lp1234
V18
p1235
aV03
p1236
aI8412
aa(lp1237
V18
p1238
aV04
p1239
aI15485
aa(lp1240
V18
p1241
aV05
p1242
aI19068
aa(lp1243
V18
p1244
aV06
p1245
aI17634
aa(lp1246
V18
p1247
aV07
p1248
aI15312
aa(lp1249
V18
p1250
aV08
p1251
aI13613
aa(lp1252
V18
p1253
aV09
p1254
aI13594
aa(lp1255
V18
p1256
aV10
p1257
aI14549
aa(lp1258
V18
p1259
aV11
p1260
aI13807
aa(lp1261
V18
p1262
aV12
p1263
aI12635
aa(lp1264
V18
p1265
aV13
p1266
aI12446
aa(lp1267
V18
p1268
aV14
p1269
aI12785
aa(lp1270
V18
p1271
aV15
p1272
aI13579
aa(lp1273
V18
p1274
aV16
p1275
aI14149
aa(lp1276
V18
p1277
aV17
p1278
aI13050
aa(lp1279
V18
p1280
aV18
p1281
aI10802
aa(lp1282
V18
p1283
aV19
p1284
aI8932
aa(lp1285
V18
p1286
aV20
p1287
aI8457
aa(lp1288
V18
p1289
aV21
p1290
aI7644
aa(lp1291
V18
p1292
aV22
p1293
aI6284
aa(lp1294
V18
p1295
aV23
p1296
aI5135
aa(lp1297
V19
p1298
aV00
p1299
aI4689
aa(lp1300
V19
p1301
aV01
p1302
aI4613
aa(lp1303
V19
p1304
aV02
p1305
aI5139
aa(lp1306
V19
p1307
aV03
p1308
aI8328
aa(lp1309
V19
p1310
aV04
p1311
aI15518
aa(lp1312
V19
p1313
aV05
p1314
aI19339
aa(lp1315
V19
p1316
aV06
p1317
aI17739
aa(lp1318
V19
p1319
aV07
p1320
aI15601
aa(lp1321
V19
p1322
aV08
p1323
aI13925
aa(lp1324
V19
p1325
aV09
p1326
aI13833
aa(lp1327
V19
p1328
aV10
p1329
aI14540
aa(lp1330
V19
p1331
aV11
p1332
aI13686
aa(lp1333
V19
p1334
aV12
p1335
aI12800
aa(lp1336
V19
p1337
aV13
p1338
aI12384
aa(lp1339
V19
p1340
aV14
p1341
aI12765
aa(lp1342
V19
p1343
aV15
p1344
aI13584
aa(lp1345
V19
p1346
aV16
p1347
aI14164
aa(lp1348
V19
p1349
aV17
p1350
aI13058
aa(lp1351
V19
p1352
aV18
p1353
aI10578
aa(lp1354
V19
p1355
aV19
p1356
aI9067
aa(lp1357
V19
p1358
aV20
p1359
aI8523
aa(lp1360
V19
p1361
aV21
p1362
aI7649
aa(lp1363
V19
p1364
aV22
p1365
aI6306
aa(lp1366
V19
p1367
aV23
p1368
aI5224
aa(lp1369
V20
p1370
aV00
p1371
aI4777
aa(lp1372
V20
p1373
aV01
p1374
aI4628
aa(lp1375
V20
p1376
aV02
p1377
aI5209
aa(lp1378
V20
p1379
aV03
p1380
aI8366
aa(lp1381
V20
p1382
aV04
p1383
aI15352
aa(lp1384
V20
p1385
aV05
p1386
aI19288
aa(lp1387
V20
p1388
aV06
p1389
aI18141
aa(lp1390
V20
p1391
aV07
p1392
aI15894
aa(lp1393
V20
p1394
aV08
p1395
aI14241
aa(lp1396
V20
p1397
aV09
p1398
aI14220
aa(lp1399
V20
p1400
aV10
p1401
aI15004
aa(lp1402
V20
p1403
aV11
p1404
aI14499
aa(lp1405
V20
p1406
aV12
p1407
aI13371
aa(lp1408
V20
p1409
aV13
p1410
aI13080
aa(lp1411
V20
p1412
aV14
p1413
aI13313
aa(lp1414
V20
p1415
aV15
p1416
aI13807
aa(lp1417
V20
p1418
aV16
p1419
aI13975
aa(lp1420
V20
p1421
aV17
p1422
aI12876
aa(lp1423
V20
p1424
aV18
p1425
aI10817
aa(lp1426
V20
p1427
aV19
p1428
aI9232
aa(lp1429
V20
p1430
aV20
p1431
aI8359
aa(lp1432
V20
p1433
aV21
p1434
aI7791
aa(lp1435
V20
p1436
aV22
p1437
aI6730
aa(lp1438
V20
p1439
aV23
p1440
aI5583
aa(lp1441
V21
p1442
aV00
p1443
aI4959
aa(lp1444
V21
p1445
aV01
p1446
aI4763
aa(lp1447
V21
p1448
aV02
p1449
aI4881
aa(lp1450
V21
p1451
aV03
p1452
aI5545
aa(lp1453
V21
p1454
aV04
p1455
aI7916
aa(lp1456
V21
p1457
aV05
p1458
aI12668
aa(lp1459
V21
p1460
aV06
p1461
aI16889
aa(lp1462
V21
p1463
aV07
p1464
aI18453
aa(lp1465
V21
p1466
aV08
p1467
aI16932
aa(lp1468
V21
p1469
aV09
p1470
aI15722
aa(lp1471
V21
p1472
aV10
p1473
aI15396
aa(lp1474
V21
p1475
aV11
p1476
aI14238
aa(lp1477
V21
p1478
aV12
p1479
aI12975
aa(lp1480
V21
p1481
aV13
p1482
aI12493
aa(lp1483
V21
p1484
aV14
p1485
aI12532
aa(lp1486
V21
p1487
aV15
p1488
aI12886
aa(lp1489
V21
p1490
aV16
p1491
aI12838
aa(lp1492
V21
p1493
aV17
p1494
aI12006
aa(lp1495
V21
p1496
aV18
p1497
aI9908
aa(lp1498
V21
p1499
aV19
p1500
aI8331
aa(lp1501
V21
p1502
aV20
p1503
aI7600
aa(lp1504
V21
p1505
aV21
p1506
aI7281
aa(lp1507
V21
p1508
aV22
p1509
aI6360
aa(lp1510
V21
p1511
aV23
p1512
aI5334
aa(lp1513
V22
p1514
aV00
p1515
aI4689
aa(lp1516
V22
p1517
aV01
p1518
aI4445
aa(lp1519
V22
p1520
aV02
p1521
aI4335
aa(lp1522
V22
p1523
aV03
p1524
aI4760
aa(lp1525
V22
p1526
aV04
p1527
aI6125
aa(lp1528
V22
p1529
aV05
p1530
aI9736
aa(lp1531
V22
p1532
aV06
p1533
aI14670
aa(lp1534
V22
p1535
aV07
p1536
aI17410
aa(lp1537
V22
p1538
aV08
p1539
aI17267
aa(lp1540
V22
p1541
aV09
p1542
aI16087
aa(lp1543
V22
p1544
aV10
p1545
aI15258
aa(lp1546
V22
p1547
aV11
p1548
aI13809
aa(lp1549
V22
p1550
aV12
p1551
aI12491
aa(lp1552
V22
p1553
aV13
p1554
aI11723
aa(lp1555
V22
p1556
aV14
p1557
aI11640
aa(lp1558
V22
p1559
aV15
p1560
aI12198
aa(lp1561
V22
p1562
aV16
p1563
aI12811
aa(lp1564
V22
p1565
aV17
p1566
aI11896
aa(lp1567
V22
p1568
aV18
p1569
aI9888
aa(lp1570
V22
p1571
aV19
p1572
aI8304
aa(lp1573
V22
p1574
aV20
p1575
aI7822
aa(lp1576
V22
p1577
aV21
p1578
aI6888
aa(lp1579
V22
p1580
aV22
p1581
aI5866
aa(lp1582
V22
p1583
aV23
p1584
aI4956
aa(lp1585
V23
p1586
aV00
p1587
aI4500
aa(lp1588
V23
p1589
aV01
p1590
aI4370
aa(lp1591
V23
p1592
aV02
p1593
aI5052
aa(lp1594
V23
p1595
aV03
p1596
aI8277
aa(lp1597
V23
p1598
aV04
p1599
aI15318
aa(lp1600
V23
p1601
aV05
p1602
aI19053
aa(lp1603
V23
p1604
aV06
p1605
aI17540
aa(lp1606
V23
p1607
aV07
p1608
aI15371
aa(lp1609
V23
p1610
aV08
p1611
aI13853
aa(lp1612
V23
p1613
aV09
p1614
aI13943
aa(lp1615
V23
p1616
aV10
p1617
aI14777
aa(lp1618
V23
p1619
aV11
p1620
aI13898
aa(lp1621
V23
p1622
aV12
p1623
aI12878
aa(lp1624
V23
p1625
aV13
p1626
aI12730
aa(lp1627
V23
p1628
aV14
p1629
aI13196
aa(lp1630
V23
p1631
aV15
p1632
aI14093
aa(lp1633
V23
p1634
aV16
p1635
aI14495
aa(lp1636
V23
p1637
aV17
p1638
aI13193
aa(lp1639
V23
p1640
aV18
p1641
aI10637
aa(lp1642
V23
p1643
aV19
p1644
aI9009
aa(lp1645
V23
p1646
aV20
p1647
aI8505
aa(lp1648
V23
p1649
aV21
p1650
aI7547
aa(lp1651
V23
p1652
aV22
p1653
aI6274
aa(lp1654
V23
p1655
aV23
p1656
aI5301
aa(lp1657
V24
p1658
aV00
p1659
aI4810
aa(lp1660
V24
p1661
aV01
p1662
aI4608
aa(lp1663
V24
p1664
aV02
p1665
aI5209
aa(lp1666
V24
p1667
aV03
p1668
aI8478
aa(lp1669
V24
p1670
aV04
p1671
aI15697
aa(lp1672
V24
p1673
aV05
p1674
aI19448
aa(lp1675
V24
p1676
aV06
p1677
aI17643
aa(lp1678
V24
p1679
aV07
p1680
aI15428
aa(lp1681
V24
p1682
aV08
p1683
aI13857
aa(lp1684
V24
p1685
aV09
p1686
aI13920
aa(lp1687
V24
p1688
aV10
p1689
aI14740
aa(lp1690
V24
p1691
aV11
p1692
aI13917
aa(lp1693
V24
p1694
aV12
p1695
aI12944
aa(lp1696
V24
p1697
aV13
p1698
aI12728
aa(lp1699
V24
p1700
aV14
p1701
aI13211
aa(lp1702
V24
p1703
aV15
p1704
aI13919
aa(lp1705
V24
p1706
aV16
p1707
aI14355
aa(lp1708
V24
p1709
aV17
p1710
aI13176
aa(lp1711
V24
p1712
aV18
p1713
aI10788
aa(lp1714
V24
p1715
aV19
p1716
aI9224
aa(lp1717
V24
p1718
aV20
p1719
aI8650
aa(lp1720
V24
p1721
aV21
p1722
aI7617
aa(lp1723
V24
p1724
aV22
p1725
aI6294
aa(lp1726
V24
p1727
aV23
p1728
aI5311
aa(lp1729
V25
p1730
aV00
p1731
aI4801
aa(lp1732
V25
p1733
aV01
p1734
aI4635
aa(lp1735
V25
p1736
aV02
p1737
aI5243
aa(lp1738
V25
p1739
aV03
p1740
aI8467
aa(lp1741
V25
p1742
aV04
p1743
aI15533
aa(lp1744
V25
p1745
aV05
p1746
aI19294
aa(lp1747
V25
p1748
aV06
p1749
aI17790
aa(lp1750
V25
p1751
aV07
p1752
aI15565
aa(lp1753
V25
p1754
aV08
p1755
aI14009
aa(lp1756
V25
p1757
aV09
p1758
aI13951
aa(lp1759
V25
p1760
aV10
p1761
aI14769
aa(lp1762
V25
p1763
aV11
p1764
aI13958
aa(lp1765
V25
p1766
aV12
p1767
aI12842
aa(lp1768
V25
p1769
aV13
p1770
aI12340
aa(lp1771
V25
p1772
aV14
p1773
aI12685
aa(lp1774
V25
p1775
aV15
p1776
aI13582
aa(lp1777
V25
p1778
aV16
p1779
aI13963
aa(lp1780
V25
p1781
aV17
p1782
aI12903
aa(lp1783
V25
p1784
aV18
p1785
aI10829
aa(lp1786
V25
p1787
aV19
p1788
aI9375
aa(lp1789
V25
p1790
aV20
p1791
aI8639
aa(lp1792
V26
p1793
aV00
p1794
aI4923
aa(lp1795
V26
p1796
aV01
p1797
aI4669
aa(lp1798
V26
p1799
aV02
p1800
aI5076
aa(lp1801
V26
p1802
aV03
p1803
aI7204
aa(lp1804
V26
p1805
aV04
p1806
aI12402
aa(lp1807
V26
p1808
aV05
p1809
aI16682
aa(lp1810
V26
p1811
aV06
p1812
aI17659
aa(lp1813
V26
p1814
aV07
p1815
aI16841
aa(lp1816
V26
p1817
aV08
p1818
aI15493
aa(lp1819
V26
p1820
aV09
p1821
aI15063
aa(lp1822
V26
p1823
aV10
p1824
aI15152
aa(lp1825
V26
p1826
aV11
p1827
aI14073
aa(lp1828
V26
p1829
aV12
p1830
aI12940
aa(lp1831
V26
p1832
aV13
p1833
aI12225
aa(lp1834
V26
p1835
aV14
p1836
aI12485
aa(lp1837
V26
p1838
aV15
p1839
aI12952
aa(lp1840
V26
p1841
aV16
p1842
aI13466
aa(lp1843
V26
p1844
aV17
p1845
aI12539
aa(lp1846
V26
p1847
aV18
p1848
aI10811
aa(lp1849
V26
p1850
aV19
p1851
aI9223
aa(lp1852
V26
p1853
aV20
p1854
aI8621
aa(lp1855
V26
p1856
aV21
p1857
aI7705
aa(lp1858
V26
p1859
aV22
p1860
aI6416
aa(lp1861
V26
p1862
aV23
p1863
aI5332
aa(lp1864
V27
p1865
aV00
p1866
aI4849
aa(lp1867
V27
p1868
aV01
p1869
aI4623
aa(lp1870
V27
p1871
aV02
p1872
aI5090
aa(lp1873
V27
p1874
aV03
p1875
aI7569
aa(lp1876
V27
p1877
aV04
p1878
aI13521
aa(lp1879
V27
p1880
aV05
p1881
aI17996
aa(lp1882
V27
p1883
aV06
p1884
aI17881
aa(lp1885
V27
p1886
aV07
p1887
aI16260
aa(lp1888
V27
p1889
aV08
p1890
aI14490
aa(lp1891
V27
p1892
aV09
p1893
aI14068
aa(lp1894
V27
p1895
aV10
p1896
aI14641
aa(lp1897
V27
p1898
aV11
p1899
aI13998
aa(lp1900
V27
p1901
aV12
p1902
aI13010
aa(lp1903
V27
p1904
aV13
p1905
aI12542
aa(lp1906
V27
p1907
aV14
p1908
aI12715
aa(lp1909
V27
p1910
aV15
p1911
aI13241
aa(lp1912
V27
p1913
aV16
p1914
aI13547
aa(lp1915
V27
p1916
aV17
p1917
aI12574
aa(lp1918
V27
p1919
aV18
p1920
aI10646
aa(lp1921
V27
p1922
aV19
p1923
aI9070
aa(lp1924
V27
p1925
aV20
p1926
aI8390
aa(lp1927
V27
p1928
aV21
p1929
aI7698
aa(lp1930
V27
p1931
aV22
p1932
aI6598
aa(lp1933
V27
p1934
aV23
p1935
aI5562
aa(lp1936
V28
p1937
aV00
p1938
aI4976
aa(lp1939
V28
p1940
aV01
p1941
aI4599
aa(lp1942
V28
p1943
aV02
p1944
aI4763
aa(lp1945
V28
p1946
aV03
p1947
aI5379
aa(lp1948
V28
p1949
aV04
p1950
aI7459
aa(lp1951
V28
p1952
aV05
p1953
aI12161
aa(lp1954
V28
p1955
aV06
p1956
aI17110
aa(lp1957
V28
p1958
aV07
p1959
aI18585
aa(lp1960
V28
p1961
aV08
p1962
aI17270
aa(lp1963
V28
p1964
aV09
p1965
aI15959
aa(lp1966
V28
p1967
aV10
p1968
aI15437
aa(lp1969
V28
p1970
aV11
p1971
aI14263
aa(lp1972
V28
p1973
aV12
p1974
aI12965
aa(lp1975
V28
p1976
aV13
p1977
aI12353
aa(lp1978
V28
p1979
aV14
p1980
aI12332
aa(lp1981
V28
p1982
aV15
p1983
aI12644
aa(lp1984
V28
p1985
aV16
p1986
aI12990
aa(lp1987
V28
p1988
aV17
p1989
aI12140
aa(lp1990
V28
p1991
aV18
p1992
aI10321
aa(lp1993
V28
p1994
aV19
p1995
aI8467
aa(lp1996
V28
p1997
aV20
p1998
aI7625
aa(lp1999
V28
p2000
aV21
p2001
aI7165
aa(lp2002
V28
p2003
aV22
p2004
aI6505
aa(lp2005
V28
p2006
aV23
p2007
aI5547
aa(lp2008
V29
p2009
aV00
p2010
aI4839
aa(lp2011
V29
p2012
aV01
p2013
aI4554
aa(lp2014
V29
p2015
aV02
p2016
aI4449
aa(lp2017
V29
p2018
aV03
p2019
aI4838
aa(lp2020
V29
p2021
aV04
p2022
aI6050
aa(lp2023
V29
p2024
aV05
p2025
aI9416
aa(lp2026
V29
p2027
aV06
p2028
aI14304
aa(lp2029
V29
p2030
aV07
p2031
aI17474
aa(lp2032
V29
p2033
aV08
p2034
aI17502
aa(lp2035
V29
p2036
aV09
p2037
aI16515
aa(lp2038
V29
p2039
aV10
p2040
aI15538
aa(lp2041
V29
p2042
aV11
p2043
aI13827
aa(lp2044
V29
p2045
aV12
p2046
aI11957
aa(lp2047
V29
p2048
aV13
p2049
aI11144
aa(lp2050
V29
p2051
aV14
p2052
aI11371
aa(lp2053
V29
p2054
aV15
p2055
aI11836
aa(lp2056
V29
p2057
aV16
p2058
aI12197
aa(lp2059
V29
p2060
aV17
p2061
aI11295
aa(lp2062
V29
p2063
aV18
p2064
aI9482
aa(lp2065
V29
p2066
aV19
p2067
aI8146
aa(lp2068
V29
p2069
aV20
p2070
aI7683
aa(lp2071
V29
p2072
aV21
p2073
aI6982
aa(lp2074
V29
p2075
aV22
p2076
aI5792
aa(lp2077
V29
p2078
aV23
p2079
aI4852
aa(lp2080
V30
p2081
aV00
p2082
aI4411
aa(lp2083
V30
p2084
aV01
p2085
aI4280
aa(lp2086
V30
p2087
aV02
p2088
aI4984
aa(lp2089
V30
p2090
aV03
p2091
aI8444
aa(lp2092
V30
p2093
aV04
p2094
aI15785
aa(lp2095
V30
p2096
aV05
p2097
aI19036
aa(lp2098
V30
p2099
aV06
p2100
aI17109
aa(lp2101
V30
p2102
aV07
p2103
aI14978
aa(lp2104
V30
p2105
aV08
p2106
aI13781
aa(lp2107
V30
p2108
aV09
p2109
aI13757
aa(lp2110
V30
p2111
aV10
p2112
aI14382
aa(lp2113
V30
p2114
aV11
p2115
aI13360
aa(lp2116
V30
p2117
aV12
p2118
aI12320
aa(lp2119
V30
p2120
aV13
p2121
aI12175
aa(lp2122
V30
p2123
aV14
p2124
aI12727
aa(lp2125
V30
p2126
aV15
p2127
aI13709
aa(lp2128
V30
p2129
aV16
p2130
aI14372
aa(lp2131
V30
p2132
aV17
p2133
aI13092
aa(lp2134
V30
p2135
aV18
p2136
aI10538
aa(lp2137
V30
p2138
aV19
p2139
aI8779
aa(lp2140
V30
p2141
aV20
p2142
aI8376
aa(lp2143
V30
p2144
aV21
p2145
aI7361
aa(lp2146
V30
p2147
aV22
p2148
aI6168
aa(lp2149
V30
p2150
aV23
p2151
aI5151
aa(lp2152
V31
p2153
aV00
p2154
aI4737
aa(lp2155
V31
p2156
aV01
p2157
aI4578
aa(lp2158
V31
p2159
aV02
p2160
aI5151
aa(lp2161
V31
p2162
aV03
p2163
aI8659
aa(lp2164
V31
p2165
aV04
p2166
aI16370
aa(lp2167
V31
p2168
aV05
p2169
aI19779
aa(lp2170
V31
p2171
aV06
p2172
aI17387
aa(lp2173
V31
p2174
aV07
p2175
aI15127
aa(lp2176
V31
p2177
aV08
p2178
aI13557
aa(lp2179
V31
p2180
aV09
p2181
aI13634
aa(lp2182
V31
p2183
aV10
p2184
aI14383
aa(lp2185
V31
p2186
aV11
p2187
aI13628
aa(lp2188
V31
p2189
aV12
p2190
aI12567
aa(lp2191
V31
p2192
aV13
p2193
aI12330
aa(lp2194
V31
p2195
aV14
p2196
aI12774
aa(lp2197
V31
p2198
aV15
p2199
aI13538
aa(lp2200
V31
p2201
aV16
p2202
aI14244
aa(lp2203
V31
p2204
aV17
p2205
aI13133
aa(lp2206
V31
p2207
aV18
p2208
aI10844
aa(lp2209
V31
p2210
aV19
p2211
aI9369
aa(lp2212
V31
p2213
aV20
p2214
aI8810
aa(lp2215
V31
p2216
aV21
p2217
aI7782
aa(lp2218
V31
p2219
aV22
p2220
aI6424
aa(lp2221
V31
p2222
aV23
p2223
aI5343
aa.