(lp0
(lp1
V01
p2
aV00
p3
aI4848
aa(lp4
V01
p5
aV01
p6
aI4552
aa(lp7
V01
p8
aV02
p9
aI4582
aa(lp10
V01
p11
aV03
p12
aI5157
aa(lp13
V01
p14
aV04
p15
aI6993
aa(lp16
V01
p17
aV05
p18
aI11711
aa(lp19
V01
p20
aV06
p21
aI17194
aa(lp22
V01
p23
aV07
p24
aI18998
aa(lp25
V01
p26
aV08
p27
aI17792
aa(lp28
V01
p29
aV09
p30
aI16283
aa(lp31
V01
p32
aV10
p33
aI15883
aa(lp34
V01
p35
aV11
p36
aI14562
aa(lp37
V01
p38
aV12
p39
aI13267
aa(lp40
V01
p41
aV13
p42
aI12710
aa(lp43
V01
p44
aV14
p45
aI12646
aa(lp46
V01
p47
aV15
p48
aI13106
aa(lp49
V01
p50
aV16
p51
aI13122
aa(lp52
V01
p53
aV17
p54
aI11857
aa(lp55
V01
p56
aV18
p57
aI9530
aa(lp58
V01
p59
aV19
p60
aI7835
aa(lp61
V01
p62
aV20
p63
aI7285
aa(lp64
V01
p65
aV21
p66
aI6895
aa(lp67
V01
p68
aV22
p69
aI6082
aa(lp70
V01
p71
aV23
p72
aI5175
aa(lp73
V02
p74
aV00
p75
aI4534
aa(lp76
V02
p77
aV01
p78
aI4369
aa(lp79
V02
p80
aV02
p81
aI4342
aa(lp82
V02
p83
aV03
p84
aI4591
aa(lp85
V02
p86
aV04
p87
aI5675
aa(lp88
V02
p89
aV05
p90
aI9203
aa(lp91
V02
p92
aV06
p93
aI14587
aa(lp94
V02
p95
aV07
p96
aI17313
aa(lp97
V02
p98
aV08
p99
aI17132
aa(lp100
V02
p101
aV09
p102
aI16394
aa(lp103
V02
p104
aV10
p105
aI15494
aa(lp106
V02
p107
aV11
p108
aI13812
aa(lp109
V02
p110
aV12
p111
aI12356
aa(lp112
V02
p113
aV13
p114
aI11490
aa(lp115
V02
p116
aV14
p117
aI11425
aa(lp118
V02
p119
aV15
p120
aI11914
aa(lp121
V02
p122
aV16
p123
aI12228
aa(lp124
V02
p125
aV17
p126
aI11202
aa(lp127
V02
p128
aV18
p129
aI9082
aa(lp130
V02
p131
aV19
p132
aI7481
aa(lp133
V02
p134
aV20
p135
aI7283
aa(lp136
V02
p137
aV21
p138
aI6716
aa(lp139
V02
p140
aV22
p141
aI5745
aa(lp142
V02
p143
aV23
p144
aI4849
aa(lp145
V03
p146
aV00
p147
aI4440
aa(lp148
V03
p149
aV01
p150
aI4300
aa(lp151
V03
p152
aV02
p153
aI4550
aa(lp154
V03
p155
aV03
p156
aI6043
aa(lp157
V03
p158
aV04
p159
aI10070
aa(lp160
V03
p161
aV05
p162
aI14154
aa(lp163
V03
p164
aV06
p165
aI16873
aa(lp166
V03
p167
aV07
p168
aI17632
aa(lp169
V03
p170
aV08
p171
aI16696
aa(lp172
V03
p173
aV09
p174
aI16029
aa(lp175
V03
p176
aV10
p177
aI15944
aa(lp178
V03
p179
aV11
p180
aI14468
aa(lp181
V03
p182
aV12
p183
aI12925
aa(lp184
V03
p185
aV13
p186
aI12371
aa(lp187
V03
p188
aV14
p189
aI12530
aa(lp190
V03
p191
aV15
p192
aI13294
aa(lp193
V03
p194
aV16
p195
aI13710
aa(lp196
V03
p197
aV17
p198
aI12467
aa(lp199
V03
p200
aV18
p201
aI9823
aa(lp202
V03
p203
aV19
p204
aI8194
aa(lp205
V03
p206
aV20
p207
aI7947
aa(lp208
V03
p209
aV21
p210
aI7108
aa(lp211
V03
p212
aV22
p213
aI5980
aa(lp214
V03
p215
aV23
p216
aI4999
aa(lp217
V04
p218
aV00
p219
aI4565
aa(lp220
V04
p221
aV01
p222
aI4463
aa(lp223
V04
p224
aV02
p225
aI5002
aa(lp226
V04
p227
aV03
p228
aI8035
aa(lp229
V04
p230
aV04
p231
aI15026
aa(lp232
V04
p233
aV05
p234
aI18743
aa(lp235
V04
p236
aV06
p237
aI17277
aa(lp238
V04
p239
aV07
p240
aI15009
aa(lp241
V04
p242
aV08
p243
aI13482
aa(lp244
V04
p245
aV09
p246
aI13253
aa(lp247
V04
p248
aV10
p249
aI13967
aa(lp250
V04
p251
aV11
p252
aI13414
aa(lp253
V04
p254
aV12
p255
aI12371
aa(lp256
V04
p257
aV13
p258
aI12145
aa(lp259
V04
p260
aV14
p261
aI12553
aa(lp262
V04
p263
aV15
p264
aI13522
aa(lp265
V04
p266
aV16
p267
aI14193
aa(lp268
V04
p269
aV17
p270
aI12778
aa(lp271
V04
p272
aV18
p273
aI10126
aa(lp274
V04
p275
aV19
p276
aI8507
aa(lp277
V04
p278
aV20
p279
aI7990
aa(lp280
V04
p281
aV21
p282
aI7255
aa(lp283
V04
p284
aV22
p285
aI6068
aa(lp286
V04
p287
aV23
p288
aI5162
aa(lp289
V05
p290
aV00
p291
aI4652
aa(lp292
V05
p293
aV01
p294
aI4476
aa(lp295
V05
p296
aV02
p297
aI4958
aa(lp298
V05
p299
aV03
p300
aI8149
aa(lp301
V05
p302
aV04
p303
aI14999
aa(lp304
V05
p305
aV05
p306
aI18618
aa(lp307
V05
p308
aV06
p309
aI17369
aa(lp310
V05
p311
aV07
p312
aI15154
aa(lp313
V05
p314
aV08
p315
aI13635
aa(lp316
V05
p317
aV09
p318
aI13460
aa(lp319
V05
p320
aV10
p321
aI14255
aa(lp322
V05
p323
aV11
p324
aI13615
aa(lp325
V05
p326
aV12
p327
aI12590
aa(lp328
V05
p329
aV13
p330
aI12328
aa(lp331
V05
p332
aV14
p333
aI12585
aa(lp334
V05
p335
aV15
p336
aI13561
aa(lp337
V05
p338
aV16
p339
aI14116
aa(lp340
V05
p341
aV17
p342
aI12705
aa(lp343
V05
p344
aV18
p345
aI10121
aa(lp346
V05
p347
aV19
p348
aI8479
aa(lp349
V05
p350
aV20
p351
aI8764
aa(lp352
V05
p353
aV21
p354
aI7066
aa(lp355
V05
p356
aV22
p357
aI5985
aa(lp358
V05
p359
aV23
p360
aI5007
aa(lp361
V06
p362
aV00
p363
aI4530
aa(lp364
V06
p365
aV01
p366
aI4408
aa(lp367
V06
p368
aV02
p369
aI4958
aa(lp370
V06
p371
aV03
p372
aI8074
aa(lp373
V06
p374
aV04
p375
aI14994
aa(lp376
V06
p377
aV05
p378
aI18640
aa(lp379
V06
p380
aV06
p381
aI17373
aa(lp382
V06
p383
aV07
p384
aI15307
aa(lp385
V06
p386
aV08
p387
aI13746
aa(lp388
V06
p389
aV09
p390
aI13653
aa(lp391
V06
p392
aV10
p393
aI14310
aa(lp394
V06
p395
aV11
p396
aI13644
aa(lp397
V06
p398
aV12
p399
aI12688
aa(lp400
V06
p401
aV13
p402
aI11648
aa(lp403
V06
p404
aV14
p405
aI12379
aa(lp406
V06
p407
aV15
p408
aI13544
aa(lp409
V06
p410
aV16
p411
aI14135
aa(lp412
V06
p413
aV17
p414
aI12570
aa(lp415
V06
p416
aV18
p417
aI9982
aa(lp418
V06
p419
aV19
p420
aI8229
aa(lp421
V06
p422
aV20
p423
aI7756
aa(lp424
V06
p425
aV21
p426
aI7089
aa(lp427
V06
p428
aV22
p429
aI5962
aa(lp430
V06
p431
aV23
p432
aI4956
aa(lp433
V07
p434
aV00
p435
aI4446
aa(lp436
V07
p437
aV01
p438
aI4443
aa(lp439
V07
p440
aV02
p441
aI4924
aa(lp442
V07
p443
aV03
p444
aI7797
aa(lp445
V07
p446
aV04
p447
aI14537
aa(lp448
V07
p449
aV05
p450
aI18290
aa(lp451
V07
p452
aV06
p453
aI17625
aa(lp454
V07
p455
aV07
p456
aI15885
aa(lp457
V07
p458
aV08
p459
aI14314
aa(lp460
V07
p461
aV09
p462
aI14099
aa(lp463
V07
p464
aV10
p465
aI14653
aa(lp466
V07
p467
aV11
p468
aI14253
aa(lp469
V07
p470
aV12
p471
aI13278
aa(lp472
V07
p473
aV13
p474
aI12928
aa(lp475
V07
p476
aV14
p477
aI13275
aa(lp478
V07
p479
aV15
p480
aI13878
aa(lp481
V07
p482
aV16
p483
aI14054
aa(lp484
V07
p485
aV17
p486
aI12513
aa(lp487
V07
p488
aV18
p489
aI9849
aa(lp490
V07
p491
aV19
p492
aI8175
aa(lp493
V07
p494
aV20
p495
aI7695
aa(lp496
V07
p497
aV21
p498
aI7214
aa(lp499
V07
p500
aV22
p501
aI6294
aa(lp502
V07
p503
aV23
p504
aI5231
aa(lp505
V08
p506
aV00
p507
aI4584
aa(lp508
V08
p509
aV01
p510
aI4424
aa(lp511
V08
p512
aV02
p513
aI4463
aa(lp514
V08
p515
aV03
p516
aI5053
aa(lp517
V08
p518
aV04
p519
aI6867
aa(lp520
V08
p521
aV05
p522
aI11358
aa(lp523
V08
p524
aV06
p525
aI16919
aa(lp526
V08
p527
aV07
p528
aI19296
aa(lp529
V08
p530
aV08
p531
aI18200
aa(lp532
V08
p533
aV09
p534
aI16893
aa(lp535
V08
p536
aV10
p537
aI16317
aa(lp538
V08
p539
aV11
p540
aI14930
aa(lp541
V08
p542
aV12
p543
aI13733
aa(lp544
V08
p545
aV13
p546
aI13088
aa(lp547
V08
p548
aV14
p549
aI12996
aa(lp550
V08
p551
aV15
p552
aI13358
aa(lp553
V08
p554
aV16
p555
aI13421
aa(lp556
V08
p557
aV17
p558
aI12159
aa(lp559
V08
p560
aV18
p561
aI9580
aa(lp562
V08
p563
aV19
p564
aI7868
aa(lp565
V08
p566
aV20
p567
aI7344
aa(lp568
V08
p569
aV21
p570
aI7022
aa(lp571
V08
p572
aV22
p573
aI6224
aa(lp574
V08
p575
aV23
p576
aI5339
aa(lp577
V09
p578
aV00
p579
aI4688
aa(lp580
V09
p581
aV01
p582
aI4456
aa(lp583
V09
p584
aV02
p585
aI4406
aa(lp586
V09
p587
aV03
p588
aI4672
aa(lp589
V09
p590
aV04
p591
aI5593
aa(lp592
V09
p593
aV05
p594
aI8672
aa(lp595
V09
p596
aV06
p597
aI14207
aa(lp598
V09
p599
aV07
p600
aI17905
aa(lp601
V09
p602
aV08
p603
aI17929
aa(lp604
V09
p605
aV09
p606
aI17038
aa(lp607
V09
p608
aV10
p609
aI15831
aa(lp610
V09
p611
aV11
p612
aI14088
aa(lp613
V09
p614
aV12
p615
aI12636
aa(lp616
V09
p617
aV13
p618
aI11683
aa(lp619
V09
p620
aV14
p621
aI11543
aa(lp622
V09
p623
aV15
p624
aI12091
aa(lp625
V09
p626
aV16
p627
aI12656
aa(lp628
V09
p629
aV17
p630
aI11609
aa(lp631
V09
p632
aV18
p633
aI9076
aa(lp634
V09
p635
aV19
p636
aI7402
aa(lp637
V09
p638
aV20
p639
aI7269
aa(lp640
V09
p641
aV21
p642
aI6557
aa(lp643
V09
p644
aV22
p645
aI5476
aa(lp646
V09
p647
aV23
p648
aI4639
aa(lp649
V10
p650
aV00
p651
aI4218
aa(lp652
V10
p653
aV01
p654
aI3956
aa(lp655
V10
p656
aV02
p657
aI4690
aa(lp658
V10
p659
aV03
p660
aI7955
aa(lp661
V10
p662
aV04
p663
aI14526
aa(lp664
V10
p665
aV05
p666
aI18108
aa(lp667
V10
p668
aV06
p669
aI17168
aa(lp670
V10
p671
aV07
p672
aI15232
aa(lp673
V10
p674
aV08
p675
aI13766
aa(lp676
V10
p677
aV09
p678
aI13552
aa(lp679
V10
p680
aV10
p681
aI14102
aa(lp682
V10
p683
aV11
p684
aI13263
aa(lp685
V10
p686
aV12
p687
aI12377
aa(lp688
V10
p689
aV13
p690
aI12063
aa(lp691
V10
p692
aV14
p693
aI12725
aa(lp694
V10
p695
aV15
p696
aI13885
aa(lp697
V10
p698
aV16
p699
aI14492
aa(lp700
V10
p701
aV17
p702
aI12972
aa(lp703
V10
p704
aV18
p705
aI10022
aa(lp706
V10
p707
aV19
p708
aI8130
aa(lp709
V10
p710
aV20
p711
aI7822
aa(lp712
V10
p713
aV21
p714
aI7031
aa(lp715
V10
p716
aV22
p717
aI5842
aa(lp718
V10
p719
aV23
p720
aI4874
aa(lp721
V11
p722
aV00
p723
aI4475
aa(lp724
V11
p725
aV01
p726
aI4371
aa(lp727
V11
p728
aV02
p729
aI4931
aa(lp730
V11
p731
aV03
p732
aI7965
aa(lp733
V11
p734
aV04
p735
aI14679
aa(lp736
V11
p737
aV05
p738
aI18393
aa(lp739
V11
p740
aV06
p741
aI17235
aa(lp742
V11
p743
aV07
p744
aI15300
aa(lp745
V11
p746
aV08
p747
aI13696
aa(lp748
V11
p749
aV09
p750
aI13471
aa(lp751
V11
p752
aV10
p753
aI14320
aa(lp754
V11
p755
aV11
p756
aI13617
aa(lp757
V11
p758
aV12
p759
aI12565
aa(lp760
V11
p761
aV13
p762
aI12337
aa(lp763
V11
p764
aV14
p765
aI12916
aa(lp766
V11
p767
aV15
p768
aI13872
aa(lp769
V11
p770
aV16
p771
aI14363
aa(lp772
V11
p773
aV17
p774
aI12814
aa(lp775
V11
p776
aV18
p777
aI10026
aa(lp778
V11
p779
aV19
p780
aI8275
aa(lp781
V11
p782
aV20
p783
aI7905
aa(lp784
V11
p785
aV21
p786
aI7185
aa(lp787
V11
p788
aV22
p789
aI6045
aa(lp790
V11
p791
aV23
p792
aI5130
aa(lp793
V12
p794
aV00
p795
aI4528
aa(lp796
V12
p797
aV01
p798
aI4510
aa(lp799
V12
p800
aV02
p801
aI5012
aa(lp802
V12
p803
aV03
p804
aI7932
aa(lp805
V12
p806
aV04
p807
aI14461
aa(lp808
V12
p809
aV05
p810
aI18030
aa(lp811
V12
p812
aV06
p813
aI17373
aa(lp814
V12
p815
aV07
p816
aI15495
aa(lp817
V12
p818
aV08
p819
aI14084
aa(lp820
V12
p821
aV09
p822
aI13876
aa(lp823
V12
p824
aV10
p825
aI14387
aa(lp826
V12
p827
aV11
p828
aI13586
aa(lp829
V12
p830
aV12
p831
aI12679
aa(lp832
V12
p833
aV13
p834
aI12514
aa(lp835
V12
p836
aV14
p837
aI13018
aa(lp838
V12
p839
aV15
p840
aI14181
aa(lp841
V12
p842
aV16
p843
aI14520
aa(lp844
V12
p845
aV17
p846
aI12848
aa(lp847
V12
p848
aV18
p849
aI10148
aa(lp850
V12
p851
aV19
p852
aI8648
aa(lp853
V12
p854
aV20
p855
aI8192
aa(lp856
V12
p857
aV21
p858
aI7291
aa(lp859
V12
p860
aV22
p861
aI5946
aa(lp862
V12
p863
aV23
p864
aI5063
aa(lp865
V13
p866
aV00
p867
aI4605
aa(lp868
V13
p869
aV01
p870
aI4572
aa(lp871
V13
p872
aV02
p873
aI5131
aa(lp874
V13
p875
aV03
p876
aI8004
aa(lp877
V13
p878
aV04
p879
aI14542
aa(lp880
V13
p881
aV05
p882
aI18055
aa(lp883
V13
p884
aV06
p885
aI17371
aa(lp886
V13
p887
aV07
p888
aI15440
aa(lp889
V13
p890
aV08
p891
aI13796
aa(lp892
V13
p893
aV09
p894
aI13748
aa(lp895
V13
p896
aV10
p897
aI14535
aa(lp898
V13
p899
aV11
p900
aI13763
aa(lp901
V13
p902
aV12
p903
aI12731
aa(lp904
V13
p905
aV13
p906
aI12515
aa(lp907
V13
p908
aV14
p909
aI13050
aa(lp910
V13
p911
aV15
p912
aI14040
aa(lp913
V13
p914
aV16
p915
aI14635
aa(lp916
V13
p917
aV17
p918
aI13006
aa(lp919
V13
p920
aV18
p921
aI10258
aa(lp922
V13
p923
aV19
p924
aI8571
aa(lp925
V13
p926
aV20
p927
aI8115
aa(lp928
V13
p929
aV21
p930
aI7352
aa(lp931
V13
p932
aV22
p933
aI6165
aa(lp934
V13
p935
aV23
p936
aI5168
aa(lp937
V14
p938
aV00
p939
aI4672
aa(lp940
V14
p941
aV01
p942
aI4558
aa(lp943
V14
p944
aV02
p945
aI5025
aa(lp946
V14
p947
aV03
p948
aI7900
aa(lp949
V14
p950
aV04
p951
aI14220
aa(lp952
V14
p953
aV05
p954
aI18083
aa(lp955
V14
p956
aV06
p957
aI17881
aa(lp958
V14
p959
aV07
p960
aI16139
aa(lp961
V14
p962
aV08
p963
aI14566
aa(lp964
V14
p965
aV09
p966
aI14190
aa(lp967
V14
p968
aV10
p969
aI14855
aa(lp970
V14
p971
aV11
p972
aI14388
aa(lp973
V14
p974
aV12
p975
aI13315
aa(lp976
V14
p977
aV13
p978
aI13057
aa(lp979
V14
p980
aV14
p981
aI13588
aa(lp982
V14
p983
aV15
p984
aI14135
aa(lp985
V14
p986
aV16
p987
aI14392
aa(lp988
V14
p989
aV17
p990
aI12617
aa(lp991
V14
p992
aV18
p993
aI10010
aa(lp994
V14
p995
aV19
p996
aI8271
aa(lp997
V14
p998
aV20
p999
aI7806
aa(lp1000
V14
p1001
aV21
p1002
aI7333
aa(lp1003
V14
p1004
aV22
p1005
aI6474
aa(lp1006
V14
p1007
aV23
p1008
aI5546
aa(lp1009
V15
p1010
aV00
p1011
aI4886
aa(lp1012
V15
p1013
aV01
p1014
aI4494
aa(lp1015
V15
p1016
aV02
p1017
aI4520
aa(lp1018
V15
p1019
aV03
p1020
aI5091
aa(lp1021
V15
p1022
aV04
p1023
aI6902
aa(lp1024
V15
p1025
aV05
p1026
aI11340
aa(lp1027
V15
p1028
aV06
p1029
aI17183
aa(lp1030
V15
p1031
aV07
p1032
aI19365
aa(lp1033
V15
p1034
aV08
p1035
aI18500
aa(lp1036
V15
p1037
aV09
p1038
aI17145
aa(lp1039
V15
p1040
aV10
p1041
aI16568
aa(lp1042
V15
p1043
aV11
p1044
aI15113
aa(lp1045
V15
p1046
aV12
p1047
aI13988
aa(lp1048
V15
p1049
aV13
p1050
aI13337
aa(lp1051
V15
p1052
aV14
p1053
aI12999
aa(lp1054
V15
p1055
aV15
p1056
aI13585
aa(lp1057
V15
p1058
aV16
p1059
aI14310
aa(lp1060
V15
p1061
aV17
p1062
aI11963
aa(lp1063
V15
p1064
aV18
p1065
aI9681
aa(lp1066
V15
p1067
aV19
p1068
aI7917
aa(lp1069
V15
p1070
aV20
p1071
aI7400
aa(lp1072
V15
p1073
aV21
p1074
aI7000
aa(lp1075
V15
p1076
aV22
p1077
aI6265
aa(lp1078
V15
p1079
aV23
p1080
aI5398
aa(lp1081
V16
p1082
aV00
p1083
aI4708
aa(lp1084
V16
p1085
aV01
p1086
aI4452
aa(lp1087
V16
p1088
aV02
p1089
aI4331
aa(lp1090
V16
p1091
aV03
p1092
aI4573
aa(lp1093
V16
p1094
aV04
p1095
aI5602
aa(lp1096
V16
p1097
aV05
p1098
aI8833
aa(lp1099
V16
p1100
aV06
p1101
aI14576
aa(lp1102
V16
p1103
aV07
p1104
aI18333
aa(lp1105
V16
p1106
aV08
p1107
aI18150
aa(lp1108
V16
p1109
aV09
p1110
aI16922
aa(lp1111
V16
p1112
aV10
p1113
aI15661
aa(lp1114
V16
p1115
aV11
p1116
aI13721
aa(lp1117
V16
p1118
aV12
p1119
aI12051
aa(lp1120
V16
p1121
aV13
p1122
aI11186
aa(lp1123
V16
p1124
aV14
p1125
aI11147
aa(lp1126
V16
p1127
aV15
p1128
aI11913
aa(lp1129
V16
p1130
aV16
p1131
aI12741
aa(lp1132
V16
p1133
aV17
p1134
aI11515
aa(lp1135
V16
p1136
aV18
p1137
aI9163
aa(lp1138
V16
p1139
aV19
p1140
aI7587
aa(lp1141
V16
p1142
aV20
p1143
aI7318
aa(lp1144
V16
p1145
aV21
p1146
aI6671
aa(lp1147
V16
p1148
aV22
p1149
aI5639
aa(lp1150
V16
p1151
aV23
p1152
aI4823
aa(lp1153
V17
p1154
aV00
p1155
aI4378
aa(lp1156
V17
p1157
aV01
p1158
aI4349
aa(lp1159
V17
p1160
aV02
p1161
aI4914
aa(lp1162
V17
p1163
aV03
p1164
aI8030
aa(lp1165
V17
p1166
aV04
p1167
aI14552
aa(lp1168
V17
p1169
aV05
p1170
aI17940
aa(lp1171
V17
p1172
aV06
p1173
aI17099
aa(lp1174
V17
p1175
aV07
p1176
aI15337
aa(lp1177
V17
p1178
aV08
p1179
aI13940
aa(lp1180
V17
p1181
aV09
p1182
aI13900
aa(lp1183
V17
p1184
aV10
p1185
aI14676
aa(lp1186
V17
p1187
aV11
p1188
aI13870
aa(lp1189
V17
p1190
aV12
p1191
aI12746
aa(lp1192
V17
p1193
aV13
p1194
aI12519
aa(lp1195
V17
p1196
aV14
p1197
aI13042
aa(lp1198
V17
p1199
aV15
p1200
aI13966
aa(lp1201
V17
p1202
aV16
p1203
aI14735
aa(lp1204
V17
p1205
aV17
p1206
aI13152
aa(lp1207
V17
p1208
aV18
p1209
aI10217
aa(lp1210
V17
p1211
aV19
p1212
aI8426
aa(lp1213
V17
p1214
aV20
p1215
aI8095
aa(lp1216
V17
p1217
aV21
p1218
aI10012
aa(lp1219
V17
p1220
aV22
p1221
aI5968
aa(lp1222
V17
p1223
aV23
p1224
aI5081
aa(lp1225
V18
p1226
aV00
p1227
aI4553
aa(lp1228
V18
p1229
aV01
p1230
aI4467
aa(lp1231
V18
p1232
aV02
p1233
aI5055
aa(lp1234
V18
p1235
aV03
p1236
aI8187
aa(lp1237
V18
p1238
aV04
p1239
aI14986
aa(lp1240
V18
p1241
aV05
p1242
aI18398
aa(lp1243
V18
p1244
aV06
p1245
aI17302
aa(lp1246
V18
p1247
aV07
p1248
aI15414
aa(lp1249
V18
p1250
aV08
p1251
aI13837
aa(lp1252
V18
p1253
aV09
p1254
aI13767
aa(lp1255
V18
p1256
aV10
p1257
aI14459
aa(lp1258
V18
p1259
aV11
p1260
aI13744
aa(lp1261
V18
p1262
aV12
p1263
aI12771
aa(lp1264
V18
p1265
aV13
p1266
aI12601
aa(lp1267
V18
p1268
aV14
p1269
aI13015
aa(lp1270
V18
p1271
aV15
p1272
aI14121
aa(lp1273
V18
p1274
aV16
p1275
aI14736
aa(lp1276
V18
p1277
aV17
p1278
aI12999
aa(lp1279
V18
p1280
aV18
p1281
aI10409
aa(lp1282
V18
p1283
aV19
p1284
aI8642
aa(lp1285
V18
p1286
aV20
p1287
aI8179
aa(lp1288
V18
p1289
aV21
p1290
aI7417
aa(lp1291
V18
p1292
aV22
p1293
aI6226
aa(lp1294
V18
p1295
aV23
p1296
aI5263
aa(lp1297
V19
p1298
aV00
p1299
aI4717
aa(lp1300
V19
p1301
aV01
p1302
aI4569
aa(lp1303
V19
p1304
aV02
p1305
aI5167
aa(lp1306
V19
p1307
aV03
p1308
aI8226
aa(lp1309
V19
p1310
aV04
p1311
aI14771
aa(lp1312
V19
p1313
aV05
p1314
aI18383
aa(lp1315
V19
p1316
aV06
p1317
aI17598
aa(lp1318
V19
p1319
aV07
p1320
aI15823
aa(lp1321
V19
p1322
aV08
p1323
aI14346
aa(lp1324
V19
p1325
aV09
p1326
aI14203
aa(lp1327
V19
p1328
aV10
p1329
aI15007
aa(lp1330
V19
p1331
aV11
p1332
aI14363
aa(lp1333
V19
p1334
aV12
p1335
aI13296
aa(lp1336
V19
p1337
aV13
p1338
aI12966
aa(lp1339
V19
p1340
aV14
p1341
aI13459
aa(lp1342
V19
p1343
aV15
p1344
aI14355
aa(lp1345
V19
p1346
aV16
p1347
aI14882
aa(lp1348
V19
p1349
aV17
p1350
aI13077
aa(lp1351
V19
p1352
aV18
p1353
aI10375
aa(lp1354
V19
p1355
aV19
p1356
aI8539
aa(lp1357
V19
p1358
aV20
p1359
aI8182
aa(lp1360
V19
p1361
aV21
p1362
aI7360
aa(lp1363
V19
p1364
aV22
p1365
aI6278
aa(lp1366
V19
p1367
aV23
p1368
aI5163
aa(lp1369
V20
p1370
aV00
p1371
aI4656
aa(lp1372
V20
p1373
aV01
p1374
aI4346
aa(lp1375
V20
p1376
aV02
p1377
aI4982
aa(lp1378
V20
p1379
aV03
p1380
aI8215
aa(lp1381
V20
p1382
aV04
p1383
aI14650
aa(lp1384
V20
p1385
aV05
p1386
aI18067
aa(lp1387
V20
p1388
aV06
p1389
aI17360
aa(lp1390
V20
p1391
aV07
p1392
aI16024
aa(lp1393
V20
p1394
aV08
p1395
aI14066
aa(lp1396
V20
p1397
aV09
p1398
aI13859
aa(lp1399
V20
p1400
aV10
p1401
aI14439
aa(lp1402
V20
p1403
aV11
p1404
aI13826
aa(lp1405
V20
p1406
aV12
p1407
aI12770
aa(lp1408
V20
p1409
aV13
p1410
aI12545
aa(lp1411
V20
p1412
aV14
p1413
aI13047
aa(lp1414
V20
p1415
aV15
p1416
aI14235
aa(lp1417
V20
p1418
aV16
p1419
aI14565
aa(lp1420
V20
p1421
aV17
p1422
aI12893
aa(lp1423
V20
p1424
aV18
p1425
aI10064
aa(lp1426
V20
p1427
aV19
p1428
aI8461
aa(lp1429
V20
p1430
aV20
p1431
aI7995
aa(lp1432
V20
p1433
aV21
p1434
aI7331
aa(lp1435
V20
p1436
aV22
p1437
aI6206
aa(lp1438
V20
p1439
aV23
p1440
aI5149
aa(lp1441
V21
p1442
aV00
p1443
aI4674
aa(lp1444
V21
p1445
aV01
p1446
aI4514
aa(lp1447
V21
p1448
aV02
p1449
aI5032
aa(lp1450
V21
p1451
aV03
p1452
aI7999
aa(lp1453
V21
p1454
aV04
p1455
aI14168
aa(lp1456
V21
p1457
aV05
p1458
aI17879
aa(lp1459
V21
p1460
aV06
p1461
aI17555
aa(lp1462
V21
p1463
aV07
p1464
aI16182
aa(lp1465
V21
p1466
aV08
p1467
aI14819
aa(lp1468
V21
p1469
aV09
p1470
aI14603
aa(lp1471
V21
p1472
aV10
p1473
aI15278
aa(lp1474
V21
p1475
aV11
p1476
aI14604
aa(lp1477
V21
p1478
aV12
p1479
aI13555
aa(lp1480
V21
p1481
aV13
p1482
aI13262
aa(lp1483
V21
p1484
aV14
p1485
aI13548
aa(lp1486
V21
p1487
aV15
p1488
aI14194
aa(lp1489
V21
p1490
aV16
p1491
aI14590
aa(lp1492
V21
p1493
aV17
p1494
aI11625
aa(lp1495
V21
p1496
aV18
p1497
aI9335
aa(lp1498
V21
p1499
aV19
p1500
aI7828
aa(lp1501
V21
p1502
aV20
p1503
aI7322
aa(lp1504
V21
p1505
aV21
p1506
aI7084
aa(lp1507
V21
p1508
aV22
p1509
aI6064
aa(lp1510
V21
p1511
aV23
p1512
aI5104
aa(lp1513
V22
p1514
aV00
p1515
aI4472
aa(lp1516
V22
p1517
aV01
p1518
aI4217
aa(lp1519
V22
p1520
aV02
p1521
aI4268
aa(lp1522
V22
p1523
aV03
p1524
aI4807
aa(lp1525
V22
p1526
aV04
p1527
aI6656
aa(lp1528
V22
p1529
aV05
p1530
aI10993
aa(lp1531
V22
p1532
aV06
p1533
aI16910
aa(lp1534
V22
p1535
aV07
p1536
aI19436
aa(lp1537
V22
p1538
aV08
p1539
aI18553
aa(lp1540
V22
p1541
aV09
p1542
aI17282
aa(lp1543
V22
p1544
aV10
p1545
aI16650
aa(lp1546
V22
p1547
aV11
p1548
aI15315
aa(lp1549
V22
p1550
aV12
p1551
aI14012
aa(lp1552
V22
p1553
aV13
p1554
aI13261
aa(lp1555
V22
p1556
aV14
p1557
aI13115
aa(lp1558
V22
p1559
aV15
p1560
aI13602
aa(lp1561
V22
p1562
aV16
p1563
aI13661
aa(lp1564
V22
p1565
aV17
p1566
aI12120
aa(lp1567
V22
p1568
aV18
p1569
aI9629
aa(lp1570
V22
p1571
aV19
p1572
aI7918
aa(lp1573
V22
p1574
aV20
p1575
aI7480
aa(lp1576
V22
p1577
aV21
p1578
aI7070
aa(lp1579
V22
p1580
aV22
p1581
aI6319
aa(lp1582
V22
p1583
aV23
p1584
aI5318
aa(lp1585
V23
p1586
aV00
p1587
aI4710
aa(lp1588
V23
p1589
aV01
p1590
aI4361
aa(lp1591
V23
p1592
aV02
p1593
aI4351
aa(lp1594
V23
p1595
aV03
p1596
aI4637
aa(lp1597
V23
p1598
aV04
p1599
aI5591
aa(lp1600
V23
p1601
aV05
p1602
aI8555
aa(lp1603
V23
p1604
aV06
p1605
aI14081
aa(lp1606
V23
p1607
aV07
p1608
aI18292
aa(lp1609
V23
p1610
aV08
p1611
aI18615
aa(lp1612
V23
p1613
aV09
p1614
aI17584
aa(lp1615
V23
p1616
aV10
p1617
aI16422
aa(lp1618
V23
p1619
aV11
p1620
aI14647
aa(lp1621
V23
p1622
aV12
p1623
aI13018
aa(lp1624
V23
p1625
aV13
p1626
aI12036
aa(lp1627
V23
p1628
aV14
p1629
aI11839
aa(lp1630
V23
p1631
aV15
p1632
aI12432
aa(lp1633
V23
p1634
aV16
p1635
aI12863
aa(lp1636
V23
p1637
aV17
p1638
aI11480
aa(lp1639
V23
p1640
aV18
p1641
aI9040
aa(lp1642
V23
p1643
aV19
p1644
aI7477
aa(lp1645
V23
p1646
aV20
p1647
aI7367
aa(lp1648
V23
p1649
aV21
p1650
aI6683
aa(lp1651
V23
p1652
aV22
p1653
aI5650
aa(lp1654
V23
p1655
aV23
p1656
aI4839
aa(lp1657
V24
p1658
aV00
p1659
aI4353
aa(lp1660
V24
p1661
aV01
p1662
aI4260
aa(lp1663
V24
p1664
aV02
p1665
aI4917
aa(lp1666
V24
p1667
aV03
p1668
aI8103
aa(lp1669
V24
p1670
aV04
p1671
aI14945
aa(lp1672
V24
p1673
aV05
p1674
aI18056
aa(lp1675
V24
p1676
aV06
p1677
aI17115
aa(lp1678
V24
p1679
aV07
p1680
aI15431
aa(lp1681
V24
p1682
aV08
p1683
aI14142
aa(lp1684
V24
p1685
aV09
p1686
aI14090
aa(lp1687
V24
p1688
aV10
p1689
aI14792
aa(lp1690
V24
p1691
aV11
p1692
aI13966
aa(lp1693
V24
p1694
aV12
p1695
aI12761
aa(lp1696
V24
p1697
aV13
p1698
aI12465
aa(lp1699
V24
p1700
aV14
p1701
aI13051
aa(lp1702
V24
p1703
aV15
p1704
aI14108
aa(lp1705
V24
p1706
aV16
p1707
aI14720
aa(lp1708
V24
p1709
aV17
p1710
aI12805
aa(lp1711
V24
p1712
aV18
p1713
aI10212
aa(lp1714
V24
p1715
aV19
p1716
aI8532
aa(lp1717
V24
p1718
aV20
p1719
aI8262
aa(lp1720
V24
p1721
aV21
p1722
aI7328
aa(lp1723
V24
p1724
aV22
p1725
aI6201
aa(lp1726
V24
p1727
aV23
p1728
aI5156
aa(lp1729
V25
p1730
aV00
p1731
aI1720
aa(lp1732
V25
p1733
aV01
p1734
aI1646
aa(lp1735
V25
p1736
aV02
p1737
aI1549
aa(lp1738
V25
p1739
aV03
p1740
aI1469
aa(lp1741
V25
p1742
aV04
p1743
aI1360
aa(lp1744
V25
p1745
aV05
p1746
aI1292
aa(lp1747
V25
p1748
aV06
p1749
aI1240
aa(lp1750
V25
p1751
aV07
p1752
aI1159
aa(lp1753
V25
p1754
aV08
p1755
aI1113
aa(lp1756
V25
p1757
aV09
p1758
aI1257
aa(lp1759
V25
p1760
aV10
p1761
aI1601
aa(lp1762
V25
p1763
aV11
p1764
aI1932
aa(lp1765
V25
p1766
aV12
p1767
aI1980
aa(lp1768
V25
p1769
aV13
p1770
aI2050
aa(lp1771
V25
p1772
aV14
p1773
aI2106
aa(lp1774
V25
p1775
aV15
p1776
aI2030
aa(lp1777
V25
p1778
aV16
p1779
aI2088
aa(lp1780
V25
p1781
aV17
p1782
aI2052
aa(lp1783
V25
p1784
aV18
p1785
aI2049
aa(lp1786
V25
p1787
aV19
p1788
aI2035
aa(lp1789
V25
p1790
aV20
p1791
aI2118
aa(lp1792
V25
p1793
aV21
p1794
aI2439
aa(lp1795
V25
p1796
aV22
p1797
aI2794
aa(lp1798
V25
p1799
aV23
p1800
aI3403
aa(lp1801
V26
p1802
aV00
p1803
aI3076
aa(lp1804
V26
p1805
aV01
p1806
aI3209
aa(lp1807
V26
p1808
aV02
p1809
aI3846
aa(lp1810
V26
p1811
aV03
p1812
aI7189
aa(lp1813
V26
p1814
aV04
p1815
aI12997
aa(lp1816
V26
p1817
aV05
p1818
aI15480
aa(lp1819
V26
p1820
aV06
p1821
aI15234
aa(lp1822
V26
p1823
aV07
p1824
aI14294
aa(lp1825
V26
p1826
aV08
p1827
aI13811
aa(lp1828
V26
p1829
aV09
p1830
aI13770
aa(lp1831
V26
p1832
aV10
p1833
aI14690
aa(lp1834
V26
p1835
aV11
p1836
aI13916
aa(lp1837
V26
p1838
aV12
p1839
aI12980
aa(lp1840
V26
p1841
aV13
p1842
aI12558
aa(lp1843
V26
p1844
aV14
p1845
aI13229
aa(lp1846
V26
p1847
aV15
p1848
aI14289
aa(lp1849
V26
p1850
aV16
p1851
aI14747
aa(lp1852
V26
p1853
aV17
p1854
aI13015
aa(lp1855
V26
p1856
aV18
p1857
aI10465
aa(lp1858
V26
p1859
aV19
p1860
aI8751
aa(lp1861
V26
p1862
aV20
p1863
aI8329
aa(lp1864
V26
p1865
aV21
p1866
aI7745
aa(lp1867
V26
p1868
aV22
p1869
aI6577
aa(lp1870
V26
p1871
aV23
p1872
aI5523
aa(lp1873
V27
p1874
aV00
p1875
aI4233
aa(lp1876
V27
p1877
aV01
p1878
aI2474
aa(lp1879
V27
p1880
aV02
p1881
aI2560
aa(lp1882
V27
p1883
aV03
p1884
aI3393
aa(lp1885
V27
p1886
aV04
p1887
aI11214
aa(lp1888
V27
p1889
aV05
p1890
aI15271
aa(lp1891
V27
p1892
aV06
p1893
aI15457
aa(lp1894
V27
p1895
aV07
p1896
aI14186
aa(lp1897
V27
p1898
aV08
p1899
aI13039
aa(lp1900
V27
p1901
aV09
p1902
aI13044
aa(lp1903
V27
p1904
aV10
p1905
aI13830
aa(lp1906
V27
p1907
aV11
p1908
aI13420
aa(lp1909
V27
p1910
aV12
p1911
aI12531
aa(lp1912
V27
p1913
aV13
p1914
aI12380
aa(lp1915
V27
p1916
aV14
p1917
aI13057
aa(lp1918
V27
p1919
aV15
p1920
aI14159
aa(lp1921
V27
p1922
aV16
p1923
aI14767
aa(lp1924
V27
p1925
aV17
p1926
aI13145
aa(lp1927
V27
p1928
aV18
p1929
aI10456
aa(lp1930
V27
p1931
aV19
p1932
aI8928
aa(lp1933
V27
p1934
aV20
p1935
aI8470
aa(lp1936
V27
p1937
aV21
p1938
aI7616
aa(lp1939
V27
p1940
aV22
p1941
aI6785
aa(lp1942
V27
p1943
aV23
p1944
aI5220
aa(lp1945
V28
p1946
aV00
p1947
aI4656
aa(lp1948
V28
p1949
aV01
p1950
aI4492
aa(lp1951
V28
p1952
aV02
p1953
aI5036
aa(lp1954
V28
p1955
aV03
p1956
aI7793
aa(lp1957
V28
p1958
aV04
p1959
aI14336
aa(lp1960
V28
p1961
aV05
p1962
aI17713
aa(lp1963
V28
p1964
aV06
p1965
aI17377
aa(lp1966
V28
p1967
aV07
p1968
aI16119
aa(lp1969
V28
p1970
aV08
p1971
aI14706
aa(lp1972
V28
p1973
aV09
p1974
aI14326
aa(lp1975
V28
p1976
aV10
p1977
aI15009
aa(lp1978
V28
p1979
aV11
p1980
aI14485
aa(lp1981
V28
p1982
aV12
p1983
aI13529
aa(lp1984
V28
p1985
aV13
p1986
aI13315
aa(lp1987
V28
p1988
aV14
p1989
aI13621
aa(lp1990
V28
p1991
aV15
p1992
aI14271
aa(lp1993
V28
p1994
aV16
p1995
aI14478
aa(lp1996
V28
p1997
aV17
p1998
aI12678
aa(lp1999
V28
p2000
aV18
p2001
aI10163
aa(lp2002
V28
p2003
aV19
p2004
aI8541
aa(lp2005
V28
p2006
aV20
p2007
aI8108
aa(lp2008
V28
p2009
aV21
p2010
aI7555
aa(lp2011
V28
p2012
aV22
p2013
aI6614
aa(lp2014
V28
p2015
aV23
p2016
aI5610
aa(lp2017
V29
p2018
aV00
p2019
aI4845
aa(lp2020
V29
p2021
aV01
p2022
aI4586
aa(lp2023
V29
p2024
aV02
p2025
aI4607
aa(lp2026
V29
p2027
aV03
p2028
aI5165
aa(lp2029
V29
p2030
aV04
p2031
aI7069
aa(lp2032
V29
p2033
aV05
p2034
aI11180
aa(lp2035
V29
p2036
aV06
p2037
aI16821
aa(lp2038
V29
p2039
aV07
p2040
aI19375
aa(lp2041
V29
p2042
aV08
p2043
aI18488
aa(lp2044
V29
p2045
aV09
p2046
aI17189
aa(lp2047
V29
p2048
aV10
p2049
aI16425
aa(lp2050
V29
p2051
aV11
p2052
aI15246
aa(lp2053
V29
p2054
aV12
p2055
aI13865
aa(lp2056
V29
p2057
aV13
p2058
aI13310
aa(lp2059
V29
p2060
aV14
p2061
aI13197
aa(lp2062
V29
p2063
aV15
p2064
aI13839
aa(lp2065
V29
p2066
aV16
p2067
aI13959
aa(lp2068
V29
p2069
aV17
p2070
aI12151
aa(lp2071
V29
p2072
aV18
p2073
aI9828
aa(lp2074
V29
p2075
aV19
p2076
aI8113
aa(lp2077
V29
p2078
aV20
p2079
aI7589
aa(lp2080
V29
p2081
aV21
p2082
aI7541
aa(lp2083
V29
p2084
aV22
p2085
aI6462
aa(lp2086
V29
p2087
aV23
p2088
aI5472
aa(lp2089
V30
p2090
aV00
p2091
aI4778
aa(lp2092
V30
p2093
aV01
p2094
aI4436
aa(lp2095
V30
p2096
aV02
p2097
aI4377
aa(lp2098
V30
p2099
aV03
p2100
aI4465
aa(lp2101
V30
p2102
aV04
p2103
aI4976
aa(lp2104
V30
p2105
aV05
p2106
aI6756
aa(lp2107
V30
p2108
aV06
p2109
aI11862
aa(lp2110
V30
p2111
aV07
p2112
aI17071
aa(lp2113
V30
p2114
aV08
p2115
aI18859
aa(lp2116
V30
p2117
aV09
p2118
aI17743
aa(lp2119
V30
p2120
aV10
p2121
aI16510
aa(lp2122
V30
p2123
aV11
p2124
aI15477
aa(lp2125
V30
p2126
aV12
p2127
aI13532
aa(lp2128
V30
p2129
aV13
p2130
aI12076
aa(lp2131
V30
p2132
aV14
p2133
aI11542
aa(lp2134
V30
p2135
aV15
p2136
aI11736
aa(lp2137
V30
p2138
aV16
p2139
aI12582
aa(lp2140
V30
p2141
aV17
p2142
aI12567
aa(lp2143
V30
p2144
aV18
p2145
aI10725
aa(lp2146
V30
p2147
aV19
p2148
aI8437
aa(lp2149
V30
p2150
aV20
p2151
aI7333
aa(lp2152
V30
p2153
aV21
p2154
aI7275
aa(lp2155
V30
p2156
aV22
p2157
aI6599
aa(lp2158
V30
p2159
aV23
p2160
aI5506
aa(lp2161
V31
p2162
aV00
p2163
aI4691
aa(lp2164
V31
p2165
aV01
p2166
aI4321
aa(lp2167
V31
p2168
aV02
p2169
aI4326
aa(lp2170
V31
p2171
aV03
p2172
aI4725
aa(lp2173
V31
p2174
aV04
p2175
aI7404
aa(lp2176
V31
p2177
aV05
p2178
aI13176
aa(lp2179
V31
p2180
aV06
p2181
aI17851
aa(lp2182
V31
p2183
aV07
p2184
aI18184
aa(lp2185
V31
p2186
aV08
p2187
aI16708
aa(lp2188
V31
p2189
aV09
p2190
aI15175
aa(lp2191
V31
p2192
aV10
p2193
aI15150
aa(lp2194
V31
p2195
aV11
p2196
aI15542
aa(lp2197
V31
p2198
aV12
p2199
aI14440
aa(lp2200
V31
p2201
aV13
p2202
aI13150
aa(lp2203
V31
p2204
aV14
p2205
aI12825
aa(lp2206
V31
p2207
aV15
p2208
aI13421
aa(lp2209
V31
p2210
aV16
p2211
aI14443
aa(lp2212
V31
p2213
aV17
p2214
aI14007
aa(lp2215
V31
p2216
aV18
p2217
aI12060
aa(lp2218
V31
p2219
aV19
p2220
aI9787
aa(lp2221
V31
p2222
aV20
p2223
aI8437
aa(lp2224
V31
p2225
aV21
p2226
aI8051
aa(lp2227
V31
p2228
aV22
p2229
aI7237
aa(lp2230
V31
p2231
aV23
p2232
aI6120
aa.