(lp0
(lp1
V01
p2
aV00
p3
aI5610
aa(lp4
V01
p5
aV01
p6
aI5161
aa(lp7
V01
p8
aV02
p9
aI5173
aa(lp10
V01
p11
aV03
p12
aI5678
aa(lp13
V01
p14
aV04
p15
aI8447
aa(lp16
V01
p17
aV05
p18
aI14612
aa(lp19
V01
p20
aV06
p21
aI16794
aa(lp22
V01
p23
aV07
p24
aI15497
aa(lp25
V01
p26
aV08
p27
aI14099
aa(lp28
V01
p29
aV09
p30
aI12716
aa(lp31
V01
p32
aV10
p33
aI12840
aa(lp34
V01
p35
aV11
p36
aI13538
aa(lp37
V01
p38
aV12
p39
aI13146
aa(lp40
V01
p41
aV13
p42
aI12371
aa(lp43
V01
p44
aV14
p45
aI12348
aa(lp46
V01
p47
aV15
p48
aI12927
aa(lp49
V01
p50
aV16
p51
aI13809
aa(lp52
V01
p53
aV17
p54
aI14118
aa(lp55
V01
p56
aV18
p57
aI13615
aa(lp58
V01
p59
aV19
p60
aI11361
aa(lp61
V01
p62
aV20
p63
aI9857
aa(lp64
V01
p65
aV21
p66
aI9184
aa(lp67
V01
p68
aV22
p69
aI8450
aa(lp70
V01
p71
aV23
p72
aI7114
aa(lp73
V02
p74
aV00
p75
aI6085
aa(lp76
V02
p77
aV01
p78
aI5547
aa(lp79
V02
p80
aV02
p81
aI5478
aa(lp82
V02
p83
aV03
p84
aI6039
aa(lp85
V02
p86
aV04
p87
aI9536
aa(lp88
V02
p89
aV05
p90
aI17193
aa(lp91
V02
p92
aV06
p93
aI20620
aa(lp94
V02
p95
aV07
p96
aI19207
aa(lp97
V02
p98
aV08
p99
aI16967
aa(lp100
V02
p101
aV09
p102
aI15491
aa(lp103
V02
p104
aV10
p105
aI15568
aa(lp106
V02
p107
aV11
p108
aI16475
aa(lp109
V02
p110
aV12
p111
aI15728
aa(lp112
V02
p113
aV13
p114
aI14727
aa(lp115
V02
p116
aV14
p117
aI14528
aa(lp118
V02
p119
aV15
p120
aI15277
aa(lp121
V02
p122
aV16
p123
aI16414
aa(lp124
V02
p125
aV17
p126
aI16725
aa(lp127
V02
p128
aV18
p129
aI14646
aa(lp130
V02
p131
aV19
p132
aI11738
aa(lp133
V02
p134
aV20
p135
aI9988
aa(lp136
V02
p137
aV21
p138
aI9703
aa(lp139
V02
p140
aV22
p141
aI8868
aa(lp142
V02
p143
aV23
p144
aI7488
aa(lp145
V03
p146
aV00
p147
aI6338
aa(lp148
V03
p149
aV01
p150
aI5886
aa(lp151
V03
p152
aV02
p153
aI5711
aa(lp154
V03
p155
aV03
p156
aI6369
aa(lp157
V03
p158
aV04
p159
aI9681
aa(lp160
V03
p161
aV05
p162
aI17033
aa(lp163
V03
p164
aV06
p165
aI20791
aa(lp166
V03
p167
aV07
p168
aI19572
aa(lp169
V03
p170
aV08
p171
aI17536
aa(lp172
V03
p173
aV09
p174
aI16014
aa(lp175
V03
p176
aV10
p177
aI16183
aa(lp178
V03
p179
aV11
p180
aI16854
aa(lp181
V03
p182
aV12
p183
aI16261
aa(lp184
V03
p185
aV13
p186
aI15119
aa(lp187
V03
p188
aV14
p189
aI15265
aa(lp190
V03
p191
aV15
p192
aI15463
aa(lp193
V03
p194
aV16
p195
aI16683
aa(lp196
V03
p197
aV17
p198
aI16905
aa(lp199
V03
p200
aV18
p201
aI14875
aa(lp202
V03
p203
aV19
p204
aI11885
aa(lp205
V03
p206
aV20
p207
aI10229
aa(lp208
V03
p209
aV21
p210
aI9823
aa(lp211
V03
p212
aV22
p213
aI8908
aa(lp214
V03
p215
aV23
p216
aI7587
aa(lp217
V04
p218
aV00
p219
aI5968
aa(lp220
V04
p221
aV01
p222
aI5489
aa(lp223
V04
p224
aV02
p225
aI5385
aa(lp226
V04
p227
aV03
p228
aI5973
aa(lp229
V04
p230
aV04
p231
aI8639
aa(lp232
V04
p233
aV05
p234
aI14686
aa(lp235
V04
p236
aV06
p237
aI18267
aa(lp238
V04
p239
aV07
p240
aI17355
aa(lp241
V04
p242
aV08
p243
aI15394
aa(lp244
V04
p245
aV09
p246
aI14299
aa(lp247
V04
p248
aV10
p249
aI14520
aa(lp250
V04
p251
aV11
p252
aI15126
aa(lp253
V04
p254
aV12
p255
aI14728
aa(lp256
V04
p257
aV13
p258
aI13975
aa(lp259
V04
p260
aV14
p261
aI14058
aa(lp262
V04
p263
aV15
p264
aI14704
aa(lp265
V04
p266
aV16
p267
aI15543
aa(lp268
V04
p269
aV17
p270
aI15703
aa(lp271
V04
p272
aV18
p273
aI14005
aa(lp274
V04
p275
aV19
p276
aI11253
aa(lp277
V04
p278
aV20
p279
aI9780
aa(lp280
V04
p281
aV21
p282
aI9265
aa(lp283
V04
p284
aV22
p285
aI8522
aa(lp286
V04
p287
aV23
p288
aI7381
aa(lp289
V05
p290
aV00
p291
aI6274
aa(lp292
V05
p293
aV01
p294
aI5706
aa(lp295
V05
p296
aV02
p297
aI5624
aa(lp298
V05
p299
aV03
p300
aI6120
aa(lp301
V05
p302
aV04
p303
aI9051
aa(lp304
V05
p305
aV05
p306
aI15850
aa(lp307
V05
p308
aV06
p309
aI19816
aa(lp310
V05
p311
aV07
p312
aI19409
aa(lp313
V05
p314
aV08
p315
aI17780
aa(lp316
V05
p317
aV09
p318
aI16526
aa(lp319
V05
p320
aV10
p321
aI16452
aa(lp322
V05
p323
aV11
p324
aI17098
aa(lp325
V05
p326
aV12
p327
aI16453
aa(lp328
V05
p329
aV13
p330
aI15569
aa(lp331
V05
p332
aV14
p333
aI15256
aa(lp334
V05
p335
aV15
p336
aI15719
aa(lp337
V05
p338
aV16
p339
aI16586
aa(lp340
V05
p341
aV17
p342
aI16508
aa(lp343
V05
p344
aV18
p345
aI14375
aa(lp346
V05
p347
aV19
p348
aI11580
aa(lp349
V05
p350
aV20
p351
aI9979
aa(lp352
V05
p353
aV21
p354
aI9378
aa(lp355
V05
p356
aV22
p357
aI8800
aa(lp358
V05
p359
aV23
p360
aI7895
aa(lp361
V06
p362
aV00
p363
aI6751
aa(lp364
V06
p365
aV01
p366
aI6034
aa(lp367
V06
p368
aV02
p369
aI5693
aa(lp370
V06
p371
aV03
p372
aI5777
aa(lp373
V06
p374
aV04
p375
aI6285
aa(lp376
V06
p377
aV05
p378
aI8040
aa(lp379
V06
p380
aV06
p381
aI12759
aa(lp382
V06
p383
aV07
p384
aI18645
aa(lp385
V06
p386
aV08
p387
aI21113
aa(lp388
V06
p389
aV09
p390
aI19926
aa(lp391
V06
p392
aV10
p393
aI18786
aa(lp394
V06
p395
aV11
p396
aI18235
aa(lp397
V06
p398
aV12
p399
aI16885
aa(lp400
V06
p401
aV13
p402
aI15692
aa(lp403
V06
p404
aV14
p405
aI14994
aa(lp406
V06
p407
aV15
p408
aI15048
aa(lp409
V06
p410
aV16
p411
aI15799
aa(lp412
V06
p413
aV17
p414
aI15633
aa(lp415
V06
p416
aV18
p417
aI13634
aa(lp418
V06
p419
aV19
p420
aI11077
aa(lp421
V06
p422
aV20
p423
aI9252
aa(lp424
V06
p425
aV21
p426
aI8721
aa(lp427
V06
p428
aV22
p429
aI8598
aa(lp430
V06
p431
aV23
p432
aI7691
aa(lp433
V07
p434
aV00
p435
aI6671
aa(lp436
V07
p437
aV01
p438
aI5970
aa(lp439
V07
p440
aV02
p441
aI5633
aa(lp442
V07
p443
aV03
p444
aI5498
aa(lp445
V07
p446
aV04
p447
aI5733
aa(lp448
V07
p449
aV05
p450
aI6726
aa(lp451
V07
p452
aV06
p453
aI10009
aa(lp454
V07
p455
aV07
p456
aI15967
aa(lp457
V07
p458
aV08
p459
aI19499
aa(lp460
V07
p461
aV09
p462
aI19482
aa(lp463
V07
p464
aV10
p465
aI18423
aa(lp466
V07
p467
aV11
p468
aI17497
aa(lp469
V07
p470
aV12
p471
aI15869
aa(lp472
V07
p473
aV13
p474
aI14327
aa(lp475
V07
p476
aV14
p477
aI13519
aa(lp478
V07
p479
aV15
p480
aI13487
aa(lp481
V07
p482
aV16
p483
aI14145
aa(lp484
V07
p485
aV17
p486
aI14510
aa(lp487
V07
p488
aV18
p489
aI12974
aa(lp490
V07
p491
aV19
p492
aI10607
aa(lp493
V07
p494
aV20
p495
aI9184
aa(lp496
V07
p497
aV21
p498
aI8968
aa(lp499
V07
p500
aV22
p501
aI8260
aa(lp502
V07
p503
aV23
p504
aI6735
aa(lp505
V08
p506
aV00
p507
aI5496
aa(lp508
V08
p509
aV01
p510
aI5131
aa(lp511
V08
p512
aV02
p513
aI5012
aa(lp514
V08
p515
aV03
p516
aI5807
aa(lp517
V08
p518
aV04
p519
aI8908
aa(lp520
V08
p521
aV05
p522
aI14690
aa(lp523
V08
p524
aV06
p525
aI18535
aa(lp526
V08
p527
aV07
p528
aI18704
aa(lp529
V08
p530
aV08
p531
aI17700
aa(lp532
V08
p533
aV09
p534
aI16572
aa(lp535
V08
p536
aV10
p537
aI16325
aa(lp538
V08
p539
aV11
p540
aI16847
aa(lp541
V08
p542
aV12
p543
aI15973
aa(lp544
V08
p545
aV13
p546
aI14761
aa(lp547
V08
p548
aV14
p549
aI14433
aa(lp550
V08
p551
aV15
p552
aI15134
aa(lp553
V08
p554
aV16
p555
aI16297
aa(lp556
V08
p557
aV17
p558
aI16486
aa(lp559
V08
p560
aV18
p561
aI14346
aa(lp562
V08
p563
aV19
p564
aI11466
aa(lp565
V08
p566
aV20
p567
aI9868
aa(lp568
V08
p569
aV21
p570
aI9530
aa(lp571
V08
p572
aV22
p573
aI8636
aa(lp574
V08
p575
aV23
p576
aI7399
aa(lp577
V09
p578
aV00
p579
aI6338
aa(lp580
V09
p581
aV01
p582
aI5738
aa(lp583
V09
p584
aV02
p585
aI5780
aa(lp586
V09
p587
aV03
p588
aI6277
aa(lp589
V09
p590
aV04
p591
aI9230
aa(lp592
V09
p593
aV05
p594
aI15460
aa(lp595
V09
p596
aV06
p597
aI19238
aa(lp598
V09
p599
aV07
p600
aI19107
aa(lp601
V09
p602
aV08
p603
aI17760
aa(lp604
V09
p605
aV09
p606
aI16385
aa(lp607
V09
p608
aV10
p609
aI16410
aa(lp610
V09
p611
aV11
p612
aI16968
aa(lp613
V09
p614
aV12
p615
aI16070
aa(lp616
V09
p617
aV13
p618
aI15019
aa(lp619
V09
p620
aV14
p621
aI14745
aa(lp622
V09
p623
aV15
p624
aI15139
aa(lp625
V09
p626
aV16
p627
aI16222
aa(lp628
V09
p629
aV17
p630
aI16525
aa(lp631
V09
p632
aV18
p633
aI14302
aa(lp634
V09
p635
aV19
p636
aI11208
aa(lp637
V09
p638
aV20
p639
aI9692
aa(lp640
V09
p641
aV21
p642
aI9407
aa(lp643
V09
p644
aV22
p645
aI8539
aa(lp646
V09
p647
aV23
p648
aI7223
aa(lp649
V10
p650
aV00
p651
aI6096
aa(lp652
V10
p653
aV01
p654
aI5675
aa(lp655
V10
p656
aV02
p657
aI5578
aa(lp658
V10
p659
aV03
p660
aI6164
aa(lp661
V10
p662
aV04
p663
aI9266
aa(lp664
V10
p665
aV05
p666
aI15804
aa(lp667
V10
p668
aV06
p669
aI19432
aa(lp670
V10
p671
aV07
p672
aI18897
aa(lp673
V10
p674
aV08
p675
aI17324
aa(lp676
V10
p677
aV09
p678
aI15931
aa(lp679
V10
p680
aV10
p681
aI15986
aa(lp682
V10
p683
aV11
p684
aI16726
aa(lp685
V10
p686
aV12
p687
aI15858
aa(lp688
V10
p689
aV13
p690
aI14954
aa(lp691
V10
p692
aV14
p693
aI14734
aa(lp694
V10
p695
aV15
p696
aI15351
aa(lp697
V10
p698
aV16
p699
aI16386
aa(lp700
V10
p701
aV17
p702
aI16610
aa(lp703
V10
p704
aV18
p705
aI14572
aa(lp706
V10
p707
aV19
p708
aI11587
aa(lp709
V10
p710
aV20
p711
aI9989
aa(lp712
V10
p713
aV21
p714
aI9464
aa(lp715
V10
p716
aV22
p717
aI8710
aa(lp718
V10
p719
aV23
p720
aI7389
aa(lp721
V11
p722
aV00
p723
aI6274
aa(lp724
V11
p725
aV01
p726
aI5770
aa(lp727
V11
p728
aV02
p729
aI5667
aa(lp730
V11
p731
aV03
p732
aI6261
aa(lp733
V11
p734
aV04
p735
aI9412
aa(lp736
V11
p737
aV05
p738
aI16117
aa(lp739
V11
p740
aV06
p741
aI19840
aa(lp742
V11
p743
aV07
p744
aI19039
aa(lp745
V11
p746
aV08
p747
aI17285
aa(lp748
V11
p749
aV09
p750
aI15757
aa(lp751
V11
p752
aV10
p753
aI15723
aa(lp754
V11
p755
aV11
p756
aI16462
aa(lp757
V11
p758
aV12
p759
aI15609
aa(lp760
V11
p761
aV13
p762
aI14563
aa(lp763
V11
p764
aV14
p765
aI14323
aa(lp766
V11
p767
aV15
p768
aI14886
aa(lp769
V11
p770
aV16
p771
aI16068
aa(lp772
V11
p773
aV17
p774
aI16310
aa(lp775
V11
p776
aV18
p777
aI14293
aa(lp778
V11
p779
aV19
p780
aI11406
aa(lp781
V11
p782
aV20
p783
aI9947
aa(lp784
V11
p785
aV21
p786
aI9532
aa(lp787
V11
p788
aV22
p789
aI8600
aa(lp790
V11
p791
aV23
p792
aI7474
aa(lp793
V12
p794
aV00
p795
aI6208
aa(lp796
V12
p797
aV01
p798
aI5787
aa(lp799
V12
p800
aV02
p801
aI5654
aa(lp802
V12
p803
aV03
p804
aI6247
aa(lp805
V12
p806
aV04
p807
aI9246
aa(lp808
V12
p809
aV05
p810
aI15644
aa(lp811
V12
p812
aV06
p813
aI19696
aa(lp814
V12
p815
aV07
p816
aI19483
aa(lp817
V12
p818
aV08
p819
aI17866
aa(lp820
V12
p821
aV09
p822
aI16519
aa(lp823
V12
p824
aV10
p825
aI16525
aa(lp826
V12
p827
aV11
p828
aI17037
aa(lp829
V12
p830
aV12
p831
aI16418
aa(lp832
V12
p833
aV13
p834
aI15428
aa(lp835
V12
p836
aV14
p837
aI15133
aa(lp838
V12
p839
aV15
p840
aI15511
aa(lp841
V12
p842
aV16
p843
aI16224
aa(lp844
V12
p845
aV17
p846
aI16437
aa(lp847
V12
p848
aV18
p849
aI14441
aa(lp850
V12
p851
aV19
p852
aI11520
aa(lp853
V12
p854
aV20
p855
aI9951
aa(lp856
V12
p857
aV21
p858
aI9317
aa(lp859
V12
p860
aV22
p861
aI8856
aa(lp862
V12
p863
aV23
p864
aI7720
aa(lp865
V13
p866
aV00
p867
aI6663
aa(lp868
V13
p869
aV01
p870
aI5916
aa(lp871
V13
p872
aV02
p873
aI5571
aa(lp874
V13
p875
aV03
p876
aI5669
aa(lp877
V13
p878
aV04
p879
aI6230
aa(lp880
V13
p881
aV05
p882
aI8030
aa(lp883
V13
p884
aV06
p885
aI12907
aa(lp886
V13
p887
aV07
p888
aI18841
aa(lp889
V13
p890
aV08
p891
aI20760
aa(lp892
V13
p893
aV09
p894
aI19716
aa(lp895
V13
p896
aV10
p897
aI18743
aa(lp898
V13
p899
aV11
p900
aI18121
aa(lp901
V13
p902
aV12
p903
aI16959
aa(lp904
V13
p905
aV13
p906
aI15748
aa(lp907
V13
p908
aV14
p909
aI15403
aa(lp910
V13
p911
aV15
p912
aI15418
aa(lp913
V13
p914
aV16
p915
aI15962
aa(lp916
V13
p917
aV17
p918
aI15850
aa(lp919
V13
p920
aV18
p921
aI13975
aa(lp922
V13
p923
aV19
p924
aI11386
aa(lp925
V13
p926
aV20
p927
aI9526
aa(lp928
V13
p929
aV21
p930
aI8901
aa(lp931
V13
p932
aV22
p933
aI8637
aa(lp934
V13
p935
aV23
p936
aI7819
aa(lp937
V14
p938
aV00
p939
aI6583
aa(lp940
V14
p941
aV01
p942
aI5890
aa(lp943
V14
p944
aV02
p945
aI5563
aa(lp946
V14
p947
aV03
p948
aI5518
aa(lp949
V14
p950
aV04
p951
aI5828
aa(lp952
V14
p953
aV05
p954
aI6878
aa(lp955
V14
p956
aV06
p957
aI10380
aa(lp958
V14
p959
aV07
p960
aI16373
aa(lp961
V14
p962
aV08
p963
aI19849
aa(lp964
V14
p965
aV09
p966
aI20042
aa(lp967
V14
p968
aV10
p969
aI19132
aa(lp970
V14
p971
aV11
p972
aI17906
aa(lp973
V14
p974
aV12
p975
aI16138
aa(lp976
V14
p977
aV13
p978
aI14511
aa(lp979
V14
p980
aV14
p981
aI13848
aa(lp982
V14
p983
aV15
p984
aI13751
aa(lp985
V14
p986
aV16
p987
aI14448
aa(lp988
V14
p989
aV17
p990
aI14724
aa(lp991
V14
p992
aV18
p993
aI13173
aa(lp994
V14
p995
aV19
p996
aI10691
aa(lp997
V14
p998
aV20
p999
aI9217
aa(lp1000
V14
p1001
aV21
p1002
aI9068
aa(lp1003
V14
p1004
aV22
p1005
aI8232
aa(lp1006
V14
p1007
aV23
p1008
aI7122
aa(lp1009
V15
p1010
aV00
p1011
aI6121
aa(lp1012
V15
p1013
aV01
p1014
aI5588
aa(lp1015
V15
p1016
aV02
p1017
aI5433
aa(lp1018
V15
p1019
aV03
p1020
aI6124
aa(lp1021
V15
p1022
aV04
p1023
aI9605
aa(lp1024
V15
p1025
aV05
p1026
aI16655
aa(lp1027
V15
p1028
aV06
p1029
aI20186
aa(lp1030
V15
p1031
aV07
p1032
aI18957
aa(lp1033
V15
p1034
aV08
p1035
aI17233
aa(lp1036
V15
p1037
aV09
p1038
aI15794
aa(lp1039
V15
p1040
aV10
p1041
aI15747
aa(lp1042
V15
p1043
aV11
p1044
aI16452
aa(lp1045
V15
p1046
aV12
p1047
aI15654
aa(lp1048
V15
p1049
aV13
p1050
aI14611
aa(lp1051
V15
p1052
aV14
p1053
aI14633
aa(lp1054
V15
p1055
aV15
p1056
aI15344
aa(lp1057
V15
p1058
aV16
p1059
aI16425
aa(lp1060
V15
p1061
aV17
p1062
aI16924
aa(lp1063
V15
p1064
aV18
p1065
aI14771
aa(lp1066
V15
p1067
aV19
p1068
aI11745
aa(lp1069
V15
p1070
aV20
p1071
aI10066
aa(lp1072
V15
p1073
aV21
p1074
aI9587
aa(lp1075
V15
p1076
aV22
p1077
aI8656
aa(lp1078
V15
p1079
aV23
p1080
aI7504
aa(lp1081
V16
p1082
aV00
p1083
aI6339
aa(lp1084
V16
p1085
aV01
p1086
aI5738
aa(lp1087
V16
p1088
aV02
p1089
aI5695
aa(lp1090
V16
p1091
aV03
p1092
aI6280
aa(lp1093
V16
p1094
aV04
p1095
aI9689
aa(lp1096
V16
p1097
aV05
p1098
aI16931
aa(lp1099
V16
p1100
aV06
p1101
aI20423
aa(lp1102
V16
p1103
aV07
p1104
aI19034
aa(lp1105
V16
p1106
aV08
p1107
aI17081
aa(lp1108
V16
p1109
aV09
p1110
aI15718
aa(lp1111
V16
p1112
aV10
p1113
aI15680
aa(lp1114
V16
p1115
aV11
p1116
aI16420
aa(lp1117
V16
p1118
aV12
p1119
aI15624
aa(lp1120
V16
p1121
aV13
p1122
aI14611
aa(lp1123
V16
p1124
aV14
p1125
aI14449
aa(lp1126
V16
p1127
aV15
p1128
aI15238
aa(lp1129
V16
p1130
aV16
p1131
aI16241
aa(lp1132
V16
p1133
aV17
p1134
aI16545
aa(lp1135
V16
p1136
aV18
p1137
aI14698
aa(lp1138
V16
p1139
aV19
p1140
aI11614
aa(lp1141
V16
p1142
aV20
p1143
aI10007
aa(lp1144
V16
p1145
aV21
p1146
aI9590
aa(lp1147
V16
p1148
aV22
p1149
aI8664
aa(lp1150
V16
p1151
aV23
p1152
aI7395
aa(lp1153
V17
p1154
aV00
p1155
aI6299
aa(lp1156
V17
p1157
aV01
p1158
aI5696
aa(lp1159
V17
p1160
aV02
p1161
aI5685
aa(lp1162
V17
p1163
aV03
p1164
aI6274
aa(lp1165
V17
p1166
aV04
p1167
aI9548
aa(lp1168
V17
p1169
aV05
p1170
aI16555
aa(lp1171
V17
p1172
aV06
p1173
aI19970
aa(lp1174
V17
p1175
aV07
p1176
aI18765
aa(lp1177
V17
p1178
aV08
p1179
aI16942
aa(lp1180
V17
p1181
aV09
p1182
aI15601
aa(lp1183
V17
p1184
aV10
p1185
aI15668
aa(lp1186
V17
p1187
aV11
p1188
aI16545
aa(lp1189
V17
p1190
aV12
p1191
aI15884
aa(lp1192
V17
p1193
aV13
p1194
aI14837
aa(lp1195
V17
p1196
aV14
p1197
aI14634
aa(lp1198
V17
p1199
aV15
p1200
aI15306
aa(lp1201
V17
p1202
aV16
p1203
aI16491
aa(lp1204
V17
p1205
aV17
p1206
aI16803
aa(lp1207
V17
p1208
aV18
p1209
aI14555
aa(lp1210
V17
p1211
aV19
p1212
aI11702
aa(lp1213
V17
p1214
aV20
p1215
aI9926
aa(lp1216
V17
p1217
aV21
p1218
aI9527
aa(lp1219
V17
p1220
aV22
p1221
aI8683
aa(lp1222
V17
p1223
aV23
p1224
aI7473
aa(lp1225
V18
p1226
aV00
p1227
aI6324
aa(lp1228
V18
p1229
aV01
p1230
aI5824
aa(lp1231
V18
p1232
aV02
p1233
aI5779
aa(lp1234
V18
p1235
aV03
p1236
aI6264
aa(lp1237
V18
p1238
aV04
p1239
aI9612
aa(lp1240
V18
p1241
aV05
p1242
aI16876
aa(lp1243
V18
p1244
aV06
p1245
aI20408
aa(lp1246
V18
p1247
aV07
p1248
aI18751
aa(lp1249
V18
p1250
aV08
p1251
aI17159
aa(lp1252
V18
p1253
aV09
p1254
aI15858
aa(lp1255
V18
p1256
aV10
p1257
aI15643
aa(lp1258
V18
p1259
aV11
p1260
aI16392
aa(lp1261
V18
p1262
aV12
p1263
aI15759
aa(lp1264
V18
p1265
aV13
p1266
aI14675
aa(lp1267
V18
p1268
aV14
p1269
aI14477
aa(lp1270
V18
p1271
aV15
p1272
aI15066
aa(lp1273
V18
p1274
aV16
p1275
aI16388
aa(lp1276
V18
p1277
aV17
p1278
aI16594
aa(lp1279
V18
p1280
aV18
p1281
aI14404
aa(lp1282
V18
p1283
aV19
p1284
aI11491
aa(lp1285
V18
p1286
aV20
p1287
aI9969
aa(lp1288
V18
p1289
aV21
p1290
aI9557
aa(lp1291
V18
p1292
aV22
p1293
aI8899
aa(lp1294
V18
p1295
aV23
p1296
aI7611
aa(lp1297
V19
p1298
aV00
p1299
aI5864
aa(lp1300
V19
p1301
aV01
p1302
aI5403
aa(lp1303
V19
p1304
aV02
p1305
aI5274
aa(lp1306
V19
p1307
aV03
p1308
aI5851
aa(lp1309
V19
p1310
aV04
p1311
aI8758
aa(lp1312
V19
p1313
aV05
p1314
aI15778
aa(lp1315
V19
p1316
aV06
p1317
aI19550
aa(lp1318
V19
p1319
aV07
p1320
aI18786
aa(lp1321
V19
p1322
aV08
p1323
aI17222
aa(lp1324
V19
p1325
aV09
p1326
aI15917
aa(lp1327
V19
p1328
aV10
p1329
aI15910
aa(lp1330
V19
p1331
aV11
p1332
aI16468
aa(lp1333
V19
p1334
aV12
p1335
aI15665
aa(lp1336
V19
p1337
aV13
p1338
aI14643
aa(lp1339
V19
p1340
aV14
p1341
aI14394
aa(lp1342
V19
p1343
aV15
p1344
aI14971
aa(lp1345
V19
p1346
aV16
p1347
aI15667
aa(lp1348
V19
p1349
aV17
p1350
aI15861
aa(lp1351
V19
p1352
aV18
p1353
aI13633
aa(lp1354
V19
p1355
aV19
p1356
aI10958
aa(lp1357
V19
p1358
aV20
p1359
aI9259
aa(lp1360
V19
p1361
aV21
p1362
aI8693
aa(lp1363
V19
p1364
aV22
p1365
aI8171
aa(lp1366
V19
p1367
aV23
p1368
aI7563
aa(lp1369
V20
p1370
aV00
p1371
aI6288
aa(lp1372
V20
p1373
aV01
p1374
aI5699
aa(lp1375
V20
p1376
aV02
p1377
aI5414
aa(lp1378
V20
p1379
aV03
p1380
aI5594
aa(lp1381
V20
p1382
aV04
p1383
aI6130
aa(lp1384
V20
p1385
aV05
p1386
aI7945
aa(lp1387
V20
p1388
aV06
p1389
aI13018
aa(lp1390
V20
p1391
aV07
p1392
aI19262
aa(lp1393
V20
p1394
aV08
p1395
aI21258
aa(lp1396
V20
p1397
aV09
p1398
aI20342
aa(lp1399
V20
p1400
aV10
p1401
aI19054
aa(lp1402
V20
p1403
aV11
p1404
aI18414
aa(lp1405
V20
p1406
aV12
p1407
aI17079
aa(lp1408
V20
p1409
aV13
p1410
aI16088
aa(lp1411
V20
p1412
aV14
p1413
aI15537
aa(lp1414
V20
p1415
aV15
p1416
aI15592
aa(lp1417
V20
p1418
aV16
p1419
aI15989
aa(lp1420
V20
p1421
aV17
p1422
aI15817
aa(lp1423
V20
p1424
aV18
p1425
aI13906
aa(lp1426
V20
p1427
aV19
p1428
aI11202
aa(lp1429
V20
p1430
aV20
p1431
aI9367
aa(lp1432
V20
p1433
aV21
p1434
aI8745
aa(lp1435
V20
p1436
aV22
p1437
aI8485
aa(lp1438
V20
p1439
aV23
p1440
aI7663
aa(lp1441
V21
p1442
aV00
p1443
aI6642
aa(lp1444
V21
p1445
aV01
p1446
aI5984
aa(lp1447
V21
p1448
aV02
p1449
aI5534
aa(lp1450
V21
p1451
aV03
p1452
aI5560
aa(lp1453
V21
p1454
aV04
p1455
aI5749
aa(lp1456
V21
p1457
aV05
p1458
aI6766
aa(lp1459
V21
p1460
aV06
p1461
aI10430
aa(lp1462
V21
p1463
aV07
p1464
aI16519
aa(lp1465
V21
p1466
aV08
p1467
aI19710
aa(lp1468
V21
p1469
aV09
p1470
aI19798
aa(lp1471
V21
p1472
aV10
p1473
aI18718
aa(lp1474
V21
p1475
aV11
p1476
aI17966
aa(lp1477
V21
p1478
aV12
p1479
aI16297
aa(lp1480
V21
p1481
aV13
p1482
aI14831
aa(lp1483
V21
p1484
aV14
p1485
aI13911
aa(lp1486
V21
p1487
aV15
p1488
aI13679
aa(lp1489
V21
p1490
aV16
p1491
aI14252
aa(lp1492
V21
p1493
aV17
p1494
aI14789
aa(lp1495
V21
p1496
aV18
p1497
aI13152
aa(lp1498
V21
p1499
aV19
p1500
aI10581
aa(lp1501
V21
p1502
aV20
p1503
aI9010
aa(lp1504
V21
p1505
aV21
p1506
aI8803
aa(lp1507
V21
p1508
aV22
p1509
aI8073
aa(lp1510
V21
p1511
aV23
p1512
aI6949
aa(lp1513
V22
p1514
aV00
p1515
aI6013
aa(lp1516
V22
p1517
aV01
p1518
aI5458
aa(lp1519
V22
p1520
aV02
p1521
aI5408
aa(lp1522
V22
p1523
aV03
p1524
aI6082
aa(lp1525
V22
p1526
aV04
p1527
aI9483
aa(lp1528
V22
p1529
aV05
p1530
aI16679
aa(lp1531
V22
p1532
aV06
p1533
aI19994
aa(lp1534
V22
p1535
aV07
p1536
aI18717
aa(lp1537
V22
p1538
aV08
p1539
aI16827
aa(lp1540
V22
p1541
aV09
p1542
aI15589
aa(lp1543
V22
p1544
aV10
p1545
aI15697
aa(lp1546
V22
p1547
aV11
p1548
aI16477
aa(lp1549
V22
p1550
aV12
p1551
aI15635
aa(lp1552
V22
p1553
aV13
p1554
aI14606
aa(lp1555
V22
p1556
aV14
p1557
aI14320
aa(lp1558
V22
p1559
aV15
p1560
aI14956
aa(lp1561
V22
p1562
aV16
p1563
aI16215
aa(lp1564
V22
p1565
aV17
p1566
aI16579
aa(lp1567
V22
p1568
aV18
p1569
aI14561
aa(lp1570
V22
p1571
aV19
p1572
aI11514
aa(lp1573
V22
p1574
aV20
p1575
aI9854
aa(lp1576
V22
p1577
aV21
p1578
aI9534
aa(lp1579
V22
p1580
aV22
p1581
aI8502
aa(lp1582
V22
p1583
aV23
p1584
aI7296
aa(lp1585
V23
p1586
aV00
p1587
aI6360
aa(lp1588
V23
p1589
aV01
p1590
aI5758
aa(lp1591
V23
p1592
aV02
p1593
aI5695
aa(lp1594
V23
p1595
aV03
p1596
aI6180
aa(lp1597
V23
p1598
aV04
p1599
aI9637
aa(lp1600
V23
p1601
aV05
p1602
aI17007
aa(lp1603
V23
p1604
aV06
p1605
aI20722
aa(lp1606
V23
p1607
aV07
p1608
aI19074
aa(lp1609
V23
p1610
aV08
p1611
aI16884
aa(lp1612
V23
p1613
aV09
p1614
aI15500
aa(lp1615
V23
p1616
aV10
p1617
aI15572
aa(lp1618
V23
p1619
aV11
p1620
aI16281
aa(lp1621
V23
p1622
aV12
p1623
aI15527
aa(lp1624
V23
p1625
aV13
p1626
aI14542
aa(lp1627
V23
p1628
aV14
p1629
aI14384
aa(lp1630
V23
p1631
aV15
p1632
aI14994
aa(lp1633
V23
p1634
aV16
p1635
aI16000
aa(lp1636
V23
p1637
aV17
p1638
aI16473
aa(lp1639
V23
p1640
aV18
p1641
aI14615
aa(lp1642
V23
p1643
aV19
p1644
aI11615
aa(lp1645
V23
p1646
aV20
p1647
aI9955
aa(lp1648
V23
p1649
aV21
p1650
aI9476
aa(lp1651
V23
p1652
aV22
p1653
aI8723
aa(lp1654
V23
p1655
aV23
p1656
aI7384
aa(lp1657
V24
p1658
aV00
p1659
aI5779
aa(lp1660
V24
p1661
aV01
p1662
aI5267
aa(lp1663
V24
p1664
aV02
p1665
aI5242
aa(lp1666
V24
p1667
aV03
p1668
aI5791
aa(lp1669
V24
p1670
aV04
p1671
aI9141
aa(lp1672
V24
p1673
aV05
p1674
aI16411
aa(lp1675
V24
p1676
aV06
p1677
aI20043
aa(lp1678
V24
p1679
aV07
p1680
aI19211
aa(lp1681
V24
p1682
aV08
p1683
aI16941
aa(lp1684
V24
p1685
aV09
p1686
aI15473
aa(lp1687
V24
p1688
aV10
p1689
aI15504
aa(lp1690
V24
p1691
aV11
p1692
aI16292
aa(lp1693
V24
p1694
aV12
p1695
aI15768
aa(lp1696
V24
p1697
aV13
p1698
aI14708
aa(lp1699
V24
p1700
aV14
p1701
aI14437
aa(lp1702
V24
p1703
aV15
p1704
aI14998
aa(lp1705
V24
p1706
aV16
p1707
aI16111
aa(lp1708
V24
p1709
aV17
p1710
aI16712
aa(lp1711
V24
p1712
aV18
p1713
aI14509
aa(lp1714
V24
p1715
aV19
p1716
aI11772
aa(lp1717
V24
p1718
aV20
p1719
aI9931
aa(lp1720
V24
p1721
aV21
p1722
aI9538
aa(lp1723
V24
p1724
aV22
p1725
aI8677
aa(lp1726
V24
p1727
aV23
p1728
aI7163
aa(lp1729
V25
p1730
aV00
p1731
aI6061
aa(lp1732
V25
p1733
aV01
p1734
aI4890
aa(lp1735
V25
p1736
aV02
p1737
aI4939
aa(lp1738
V25
p1739
aV03
p1740
aI5508
aa(lp1741
V25
p1742
aV04
p1743
aI8974
aa(lp1744
V25
p1745
aV05
p1746
aI16295
aa(lp1747
V25
p1748
aV06
p1749
aI20314
aa(lp1750
V25
p1751
aV07
p1752
aI18905
aa(lp1753
V25
p1754
aV08
p1755
aI16919
aa(lp1756
V25
p1757
aV09
p1758
aI15459
aa(lp1759
V25
p1760
aV10
p1761
aI15541
aa(lp1762
V25
p1763
aV11
p1764
aI16228
aa(lp1765
V25
p1766
aV12
p1767
aI15452
aa(lp1768
V25
p1769
aV13
p1770
aI14572
aa(lp1771
V25
p1772
aV14
p1773
aI14340
aa(lp1774
V25
p1775
aV15
p1776
aI14943
aa(lp1777
V25
p1778
aV16
p1779
aI16071
aa(lp1780
V25
p1781
aV17
p1782
aI16459
aa(lp1783
V25
p1784
aV18
p1785
aI14350
aa(lp1786
V25
p1787
aV19
p1788
aI11459
aa(lp1789
V25
p1790
aV20
p1791
aI9799
aa(lp1792
V25
p1793
aV21
p1794
aI9244
aa(lp1795
V25
p1796
aV22
p1797
aI8518
aa(lp1798
V25
p1799
aV23
p1800
aI7101
aa(lp1801
V26
p1802
aV00
p1803
aI5990
aa(lp1804
V26
p1805
aV01
p1806
aI5162
aa(lp1807
V26
p1808
aV02
p1809
aI5092
aa(lp1810
V26
p1811
aV03
p1812
aI5717
aa(lp1813
V26
p1814
aV04
p1815
aI8873
aa(lp1816
V26
p1817
aV05
p1818
aI16076
aa(lp1819
V26
p1820
aV06
p1821
aI20077
aa(lp1822
V26
p1823
aV07
p1824
aI19113
aa(lp1825
V26
p1826
aV08
p1827
aI17347
aa(lp1828
V26
p1829
aV09
p1830
aI16070
aa(lp1831
V26
p1832
aV10
p1833
aI15812
aa(lp1834
V26
p1835
aV11
p1836
aI16481
aa(lp1837
V26
p1838
aV12
p1839
aI16070
aa(lp1840
V26
p1841
aV13
p1842
aI15118
aa(lp1843
V26
p1844
aV14
p1845
aI14818
aa(lp1846
V26
p1847
aV15
p1848
aI15477
aa(lp1849
V26
p1850
aV16
p1851
aI16115
aa(lp1852
V26
p1853
aV17
p1854
aI16352
aa(lp1855
V26
p1856
aV18
p1857
aI14256
aa(lp1858
V26
p1859
aV19
p1860
aI11352
aa(lp1861
V26
p1862
aV20
p1863
aI9640
aa(lp1864
V26
p1865
aV21
p1866
aI9127
aa(lp1867
V26
p1868
aV22
p1869
aI8516
aa(lp1870
V26
p1871
aV23
p1872
aI7632
aa(lp1873
V27
p1874
aV00
p1875
aI6589
aa(lp1876
V27
p1877
aV01
p1878
aI5802
aa(lp1879
V27
p1880
aV02
p1881
aI5610
aa(lp1882
V27
p1883
aV03
p1884
aI5659
aa(lp1885
V27
p1886
aV04
p1887
aI6136
aa(lp1888
V27
p1889
aV05
p1890
aI8213
aa(lp1891
V27
p1892
aV06
p1893
aI13629
aa(lp1894
V27
p1895
aV07
p1896
aI18787
aa(lp1897
V27
p1898
aV08
p1899
aI19586
aa(lp1900
V27
p1901
aV09
p1902
aI17649
aa(lp1903
V27
p1904
aV10
p1905
aI16930
aa(lp1906
V27
p1907
aV11
p1908
aI16598
aa(lp1909
V27
p1910
aV12
p1911
aI14735
aa(lp1912
V27
p1913
aV13
p1914
aI14415
aa(lp1915
V27
p1916
aV14
p1917
aI14432
aa(lp1918
V27
p1919
aV15
p1920
aI14950
aa(lp1921
V27
p1922
aV16
p1923
aI15744
aa(lp1924
V27
p1925
aV17
p1926
aI16027
aa(lp1927
V27
p1928
aV18
p1929
aI14031
aa(lp1930
V27
p1931
aV19
p1932
aI11709
aa(lp1933
V27
p1934
aV20
p1935
aI9551
aa(lp1936
V27
p1937
aV21
p1938
aI8944
aa(lp1939
V27
p1940
aV22
p1941
aI8477
aa(lp1942
V27
p1943
aV23
p1944
aI7671
aa(lp1945
V28
p1946
aV00
p1947
aI6760
aa(lp1948
V28
p1949
aV01
p1950
aI5971
aa(lp1951
V28
p1952
aV02
p1953
aI5592
aa(lp1954
V28
p1955
aV03
p1956
aI5537
aa(lp1957
V28
p1958
aV04
p1959
aI5778
aa(lp1960
V28
p1961
aV05
p1962
aI6993
aa(lp1963
V28
p1964
aV06
p1965
aI10920
aa(lp1966
V28
p1967
aV07
p1968
aI16980
aa(lp1969
V28
p1970
aV08
p1971
aI19841
aa(lp1972
V28
p1973
aV09
p1974
aI19568
aa(lp1975
V28
p1976
aV10
p1977
aI18717
aa(lp1978
V28
p1979
aV11
p1980
aI17815
aa(lp1981
V28
p1982
aV12
p1983
aI16058
aa(lp1984
V28
p1985
aV13
p1986
aI14367
aa(lp1987
V28
p1988
aV14
p1989
aI13569
aa(lp1990
V28
p1991
aV15
p1992
aI13648
aa(lp1993
V28
p1994
aV16
p1995
aI14390
aa(lp1996
V28
p1997
aV17
p1998
aI14816
aa(lp1999
V28
p2000
aV18
p2001
aI13290
aa(lp2002
V28
p2003
aV19
p2004
aI10686
aa(lp2005
V28
p2006
aV20
p2007
aI9126
aa(lp2008
V28
p2009
aV21
p2010
aI8829
aa(lp2011
V28
p2012
aV22
p2013
aI8102
aa(lp2014
V28
p2015
aV23
p2016
aI6922
aa(lp2017
V29
p2018
aV00
p2019
aI5943
aa(lp2020
V29
p2021
aV01
p2022
aI5458
aa(lp2023
V29
p2024
aV02
p2025
aI5279
aa(lp2026
V29
p2027
aV03
p2028
aI5896
aa(lp2029
V29
p2030
aV04
p2031
aI9251
aa(lp2032
V29
p2033
aV05
p2034
aI16782
aa(lp2035
V29
p2036
aV06
p2037
aI19863
aa(lp2038
V29
p2039
aV07
p2040
aI18214
aa(lp2041
V29
p2042
aV08
p2043
aI16459
aa(lp2044
V29
p2045
aV09
p2046
aI15295
aa(lp2047
V29
p2048
aV10
p2049
aI15351
aa(lp2050
V29
p2051
aV11
p2052
aI16414
aa(lp2053
V29
p2054
aV12
p2055
aI15747
aa(lp2056
V29
p2057
aV13
p2058
aI14494
aa(lp2059
V29
p2060
aV14
p2061
aI14429
aa(lp2062
V29
p2063
aV15
p2064
aI15100
aa(lp2065
V29
p2066
aV16
p2067
aI16201
aa(lp2068
V29
p2069
aV17
p2070
aI16937
aa(lp2071
V29
p2072
aV18
p2073
aI14575
aa(lp2074
V29
p2075
aV19
p2076
aI11472
aa(lp2077
V29
p2078
aV20
p2079
aI9725
aa(lp2080
V29
p2081
aV21
p2082
aI9364
aa(lp2083
V29
p2084
aV22
p2085
aI8526
aa(lp2086
V29
p2087
aV23
p2088
aI7385
aa.